
AEOLUS_Sensorboard.elf:     file format elf32-avr

Sections:
Idx Name          Size      VMA       LMA       File off  Algn
  0 .data         0000001a  00800100  00001370  00001404  2**0
                  CONTENTS, ALLOC, LOAD, DATA
  1 .text         00001370  00000000  00000000  00000094  2**1
                  CONTENTS, ALLOC, LOAD, READONLY, CODE
  2 .bss          000000cd  0080011a  0080011a  0000141e  2**0
                  ALLOC
  3 .stab         00001c14  00000000  00000000  00001420  2**2
                  CONTENTS, READONLY, DEBUGGING
  4 .stabstr      000005e5  00000000  00000000  00003034  2**0
                  CONTENTS, READONLY, DEBUGGING
  5 .debug_aranges 00000228  00000000  00000000  00003620  2**3
                  CONTENTS, READONLY, DEBUGGING
  6 .debug_info   00001c99  00000000  00000000  00003848  2**0
                  CONTENTS, READONLY, DEBUGGING
  7 .debug_abbrev 00000c5c  00000000  00000000  000054e1  2**0
                  CONTENTS, READONLY, DEBUGGING
  8 .debug_line   0000129f  00000000  00000000  0000613d  2**0
                  CONTENTS, READONLY, DEBUGGING
  9 .debug_frame  0000055c  00000000  00000000  000073dc  2**2
                  CONTENTS, READONLY, DEBUGGING
 10 .debug_str    000006b7  00000000  00000000  00007938  2**0
                  CONTENTS, READONLY, DEBUGGING
 11 .debug_loc    000012f4  00000000  00000000  00007fef  2**0
                  CONTENTS, READONLY, DEBUGGING
 12 .debug_ranges 00000060  00000000  00000000  000092e3  2**0
                  CONTENTS, READONLY, DEBUGGING

Disassembly of section .text:

00000000 <__vectors>:
       0:	0c 94 34 00 	jmp	0x68	; 0x68 <__ctors_end>
       4:	0c 94 51 00 	jmp	0xa2	; 0xa2 <__bad_interrupt>
       8:	0c 94 51 00 	jmp	0xa2	; 0xa2 <__bad_interrupt>
       c:	0c 94 51 00 	jmp	0xa2	; 0xa2 <__bad_interrupt>
      10:	0c 94 51 00 	jmp	0xa2	; 0xa2 <__bad_interrupt>
      14:	0c 94 51 00 	jmp	0xa2	; 0xa2 <__bad_interrupt>
      18:	0c 94 51 00 	jmp	0xa2	; 0xa2 <__bad_interrupt>
      1c:	0c 94 51 00 	jmp	0xa2	; 0xa2 <__bad_interrupt>
      20:	0c 94 51 00 	jmp	0xa2	; 0xa2 <__bad_interrupt>
      24:	0c 94 51 00 	jmp	0xa2	; 0xa2 <__bad_interrupt>
      28:	0c 94 51 00 	jmp	0xa2	; 0xa2 <__bad_interrupt>
      2c:	0c 94 51 00 	jmp	0xa2	; 0xa2 <__bad_interrupt>
      30:	0c 94 51 00 	jmp	0xa2	; 0xa2 <__bad_interrupt>
      34:	0c 94 51 00 	jmp	0xa2	; 0xa2 <__bad_interrupt>
      38:	0c 94 51 00 	jmp	0xa2	; 0xa2 <__bad_interrupt>
      3c:	0c 94 51 00 	jmp	0xa2	; 0xa2 <__bad_interrupt>
      40:	0c 94 51 00 	jmp	0xa2	; 0xa2 <__bad_interrupt>
      44:	0c 94 51 00 	jmp	0xa2	; 0xa2 <__bad_interrupt>
      48:	0c 94 d5 05 	jmp	0xbaa	; 0xbaa <__vector_18>
      4c:	0c 94 51 00 	jmp	0xa2	; 0xa2 <__bad_interrupt>
      50:	0c 94 51 00 	jmp	0xa2	; 0xa2 <__bad_interrupt>
      54:	0c 94 51 00 	jmp	0xa2	; 0xa2 <__bad_interrupt>
      58:	0c 94 51 00 	jmp	0xa2	; 0xa2 <__bad_interrupt>
      5c:	0c 94 51 00 	jmp	0xa2	; 0xa2 <__bad_interrupt>
      60:	0c 94 51 00 	jmp	0xa2	; 0xa2 <__bad_interrupt>
      64:	0c 94 51 00 	jmp	0xa2	; 0xa2 <__bad_interrupt>

00000068 <__ctors_end>:
      68:	11 24       	eor	r1, r1
      6a:	1f be       	out	0x3f, r1	; 63
      6c:	cf ef       	ldi	r28, 0xFF	; 255
      6e:	d4 e0       	ldi	r29, 0x04	; 4
      70:	de bf       	out	0x3e, r29	; 62
      72:	cd bf       	out	0x3d, r28	; 61

00000074 <__do_copy_data>:
      74:	11 e0       	ldi	r17, 0x01	; 1
      76:	a0 e0       	ldi	r26, 0x00	; 0
      78:	b1 e0       	ldi	r27, 0x01	; 1
      7a:	e0 e7       	ldi	r30, 0x70	; 112
      7c:	f3 e1       	ldi	r31, 0x13	; 19
      7e:	02 c0       	rjmp	.+4      	; 0x84 <__do_copy_data+0x10>
      80:	05 90       	lpm	r0, Z+
      82:	0d 92       	st	X+, r0
      84:	aa 31       	cpi	r26, 0x1A	; 26
      86:	b1 07       	cpc	r27, r17
      88:	d9 f7       	brne	.-10     	; 0x80 <__do_copy_data+0xc>

0000008a <__do_clear_bss>:
      8a:	11 e0       	ldi	r17, 0x01	; 1
      8c:	aa e1       	ldi	r26, 0x1A	; 26
      8e:	b1 e0       	ldi	r27, 0x01	; 1
      90:	01 c0       	rjmp	.+2      	; 0x94 <.do_clear_bss_start>

00000092 <.do_clear_bss_loop>:
      92:	1d 92       	st	X+, r1

00000094 <.do_clear_bss_start>:
      94:	a7 3e       	cpi	r26, 0xE7	; 231
      96:	b1 07       	cpc	r27, r17
      98:	e1 f7       	brne	.-8      	; 0x92 <.do_clear_bss_loop>
      9a:	0e 94 0e 05 	call	0xa1c	; 0xa1c <main>
      9e:	0c 94 b6 09 	jmp	0x136c	; 0x136c <_exit>

000000a2 <__bad_interrupt>:
      a2:	0c 94 00 00 	jmp	0	; 0x0 <__vectors>

000000a6 <buffer_updateSize>:
/**
 * Update the Size of a given Buffer
 *
 * @return true, if the size of the buffer was successfully changed
 */
bool buffer_updateSize(CircularBuffer *buffer, uint8_t buffersize) {
      a6:	ff 92       	push	r15
      a8:	0f 93       	push	r16
      aa:	1f 93       	push	r17
      ac:	cf 93       	push	r28
      ae:	df 93       	push	r29
      b0:	8c 01       	movw	r16, r24
      b2:	f6 2e       	mov	r15, r22
	//  //For some reason the buffer does not exist => create it.
	//	CircularBuffer newBuffer = buffer_init(Config.windowSize);
	//	buffer = &newBuffer;
	//}

	if(buffersize != buffer->maxBuffersize) {
      b4:	dc 01       	movw	r26, r24
      b6:	16 96       	adiw	r26, 0x06	; 6
      b8:	8c 91       	ld	r24, X
      ba:	16 97       	sbiw	r26, 0x06	; 6
      bc:	86 17       	cp	r24, r22
      be:	09 f4       	brne	.+2      	; 0xc2 <buffer_updateSize+0x1c>
      c0:	43 c0       	rjmp	.+134    	; 0x148 <buffer_updateSize+0xa2>
		//The Size of the buffer has changed => initialize the new buffer

		//Delete the old buffer
		free(buffer->bufferData1_p);
      c2:	8d 91       	ld	r24, X+
      c4:	9c 91       	ld	r25, X
      c6:	0e 94 1d 09 	call	0x123a	; 0x123a <free>
		free(buffer->bufferData2_p);
      ca:	f8 01       	movw	r30, r16
      cc:	82 81       	ldd	r24, Z+2	; 0x02
      ce:	93 81       	ldd	r25, Z+3	; 0x03
      d0:	0e 94 1d 09 	call	0x123a	; 0x123a <free>

		//Allocate memory for the new buffer
		buffer->bufferData1_p = malloc(sizeof(float) * buffersize);	//Allocate memory for the new buffer
      d4:	cf 2d       	mov	r28, r15
      d6:	d0 e0       	ldi	r29, 0x00	; 0
      d8:	cc 0f       	add	r28, r28
      da:	dd 1f       	adc	r29, r29
      dc:	cc 0f       	add	r28, r28
      de:	dd 1f       	adc	r29, r29
      e0:	ce 01       	movw	r24, r28
      e2:	0e 94 87 08 	call	0x110e	; 0x110e <malloc>
      e6:	d8 01       	movw	r26, r16
      e8:	8c 93       	st	X, r24
      ea:	11 96       	adiw	r26, 0x01	; 1
      ec:	9c 93       	st	X, r25
		buffer->bufferData2_p = malloc(sizeof(float) * buffersize);
      ee:	ce 01       	movw	r24, r28
      f0:	0e 94 87 08 	call	0x110e	; 0x110e <malloc>
      f4:	f8 01       	movw	r30, r16
      f6:	82 83       	std	Z+2, r24	; 0x02
      f8:	93 83       	std	Z+3, r25	; 0x03

		//Fill the new buffer with zeros
		//memset(buffer->bufferData_p, 0, buffer->buffersize);
		for(uint8_t i = 0; i < buffersize; i++) {
      fa:	ff 20       	and	r15, r15
      fc:	e9 f0       	breq	.+58     	; 0x138 <buffer_updateSize+0x92>
/**
 * Update the Size of a given Buffer
 *
 * @return true, if the size of the buffer was successfully changed
 */
bool buffer_updateSize(CircularBuffer *buffer, uint8_t buffersize) {
      fe:	2f 2d       	mov	r18, r15
     100:	21 50       	subi	r18, 0x01	; 1
     102:	30 e0       	ldi	r19, 0x00	; 0
     104:	2f 5f       	subi	r18, 0xFF	; 255
     106:	3f 4f       	sbci	r19, 0xFF	; 255
     108:	22 0f       	add	r18, r18
     10a:	33 1f       	adc	r19, r19
     10c:	80 e0       	ldi	r24, 0x00	; 0
     10e:	90 e0       	ldi	r25, 0x00	; 0
		buffer->bufferData2_p = malloc(sizeof(float) * buffersize);

		//Fill the new buffer with zeros
		//memset(buffer->bufferData_p, 0, buffer->buffersize);
		for(uint8_t i = 0; i < buffersize; i++) {
		        buffer->bufferData1_p[i] = 0;
     110:	d8 01       	movw	r26, r16
     112:	ed 91       	ld	r30, X+
     114:	fc 91       	ld	r31, X
     116:	11 97       	sbiw	r26, 0x01	; 1
     118:	e8 0f       	add	r30, r24
     11a:	f9 1f       	adc	r31, r25
     11c:	11 82       	std	Z+1, r1	; 0x01
     11e:	10 82       	st	Z, r1
				buffer->bufferData2_p[i] = 0;
     120:	12 96       	adiw	r26, 0x02	; 2
     122:	ed 91       	ld	r30, X+
     124:	fc 91       	ld	r31, X
     126:	13 97       	sbiw	r26, 0x03	; 3
     128:	e8 0f       	add	r30, r24
     12a:	f9 1f       	adc	r31, r25
     12c:	11 82       	std	Z+1, r1	; 0x01
     12e:	10 82       	st	Z, r1
     130:	02 96       	adiw	r24, 0x02	; 2
		buffer->bufferData1_p = malloc(sizeof(float) * buffersize);	//Allocate memory for the new buffer
		buffer->bufferData2_p = malloc(sizeof(float) * buffersize);

		//Fill the new buffer with zeros
		//memset(buffer->bufferData_p, 0, buffer->buffersize);
		for(uint8_t i = 0; i < buffersize; i++) {
     132:	82 17       	cp	r24, r18
     134:	93 07       	cpc	r25, r19
     136:	61 f7       	brne	.-40     	; 0x110 <buffer_updateSize+0x6a>
		        buffer->bufferData1_p[i] = 0;
				buffer->bufferData2_p[i] = 0;
		}

		//Set the new maximum Buffersize
		buffer->maxBuffersize = buffersize + 1;
     138:	f3 94       	inc	r15
     13a:	f8 01       	movw	r30, r16
     13c:	f6 82       	std	Z+6, r15	; 0x06
		buffer->buffersize = 0;
     13e:	17 82       	std	Z+7, r1	; 0x07
		buffer->head = 0;
     140:	14 82       	std	Z+4, r1	; 0x04
		buffer->tail = 0;
     142:	15 82       	std	Z+5, r1	; 0x05

		return true;
     144:	81 e0       	ldi	r24, 0x01	; 1
     146:	01 c0       	rjmp	.+2      	; 0x14a <buffer_updateSize+0xa4>
	}

	return false;
     148:	80 e0       	ldi	r24, 0x00	; 0
}
     14a:	df 91       	pop	r29
     14c:	cf 91       	pop	r28
     14e:	1f 91       	pop	r17
     150:	0f 91       	pop	r16
     152:	ff 90       	pop	r15
     154:	08 95       	ret

00000156 <buffer_init>:
/**
 * Init a new Buffer of a given Size
 *
 * @return a circular Buffer
 */
CircularBuffer buffer_init(uint8_t buffersize) {
     156:	cf 93       	push	r28
     158:	df 93       	push	r29
     15a:	cd b7       	in	r28, 0x3d	; 61
     15c:	de b7       	in	r29, 0x3e	; 62
     15e:	60 97       	sbiw	r28, 0x10	; 16
     160:	0f b6       	in	r0, 0x3f	; 63
     162:	f8 94       	cli
     164:	de bf       	out	0x3e, r29	; 62
     166:	0f be       	out	0x3f, r0	; 63
     168:	cd bf       	out	0x3d, r28	; 61
     16a:	68 2f       	mov	r22, r24

	CircularBuffer ret; 	//Create new Circular Buffer

	buffer_updateSize(&ret, buffersize);		//Set the correct length of the buffer
     16c:	ce 01       	movw	r24, r28
     16e:	09 96       	adiw	r24, 0x09	; 9
     170:	0e 94 53 00 	call	0xa6	; 0xa6 <buffer_updateSize>

	return ret;
     174:	de 01       	movw	r26, r28
     176:	11 96       	adiw	r26, 0x01	; 1
     178:	fe 01       	movw	r30, r28
     17a:	39 96       	adiw	r30, 0x09	; 9
     17c:	88 e0       	ldi	r24, 0x08	; 8
     17e:	01 90       	ld	r0, Z+
     180:	0d 92       	st	X+, r0
     182:	81 50       	subi	r24, 0x01	; 1
     184:	e1 f7       	brne	.-8      	; 0x17e <buffer_init+0x28>
     186:	29 81       	ldd	r18, Y+1	; 0x01
     188:	3a 81       	ldd	r19, Y+2	; 0x02
     18a:	4b 81       	ldd	r20, Y+3	; 0x03
     18c:	5c 81       	ldd	r21, Y+4	; 0x04
     18e:	6d 81       	ldd	r22, Y+5	; 0x05
     190:	7e 81       	ldd	r23, Y+6	; 0x06
}
     192:	8f 81       	ldd	r24, Y+7	; 0x07
     194:	98 85       	ldd	r25, Y+8	; 0x08
     196:	60 96       	adiw	r28, 0x10	; 16
     198:	0f b6       	in	r0, 0x3f	; 63
     19a:	f8 94       	cli
     19c:	de bf       	out	0x3e, r29	; 62
     19e:	0f be       	out	0x3f, r0	; 63
     1a0:	cd bf       	out	0x3d, r28	; 61
     1a2:	df 91       	pop	r29
     1a4:	cf 91       	pop	r28
     1a6:	08 95       	ret

000001a8 <buffer_delete_oldest>:
 * Delete the oldest value from the RingBuffer
 *
 * @param *buffer: A pointer to a circular Buffer
 * @return true, if the value was successfully deleted
 */
bool buffer_delete_oldest(CircularBuffer *buffer) {
     1a8:	fc 01       	movw	r30, r24

	if(buffer->head == buffer->tail) {
     1aa:	85 81       	ldd	r24, Z+5	; 0x05
     1ac:	94 81       	ldd	r25, Z+4	; 0x04
     1ae:	98 17       	cp	r25, r24
     1b0:	51 f0       	breq	.+20     	; 0x1c6 <buffer_delete_oldest+0x1e>
		//The buffer is empty
		return false;
	} else {
		//There is at least one element in the buffer
		buffer->tail = (uint8_t) (buffer->tail + 1) % buffer->maxBuffersize;
     1b2:	8f 5f       	subi	r24, 0xFF	; 255
     1b4:	66 81       	ldd	r22, Z+6	; 0x06
     1b6:	0e 94 2a 08 	call	0x1054	; 0x1054 <__udivmodqi4>
     1ba:	95 83       	std	Z+5, r25	; 0x05
		buffer->buffersize -= 1;
     1bc:	87 81       	ldd	r24, Z+7	; 0x07
     1be:	81 50       	subi	r24, 0x01	; 1
     1c0:	87 83       	std	Z+7, r24	; 0x07

		return true;
     1c2:	81 e0       	ldi	r24, 0x01	; 1
     1c4:	08 95       	ret
 */
bool buffer_delete_oldest(CircularBuffer *buffer) {

	if(buffer->head == buffer->tail) {
		//The buffer is empty
		return false;
     1c6:	80 e0       	ldi	r24, 0x00	; 0
		buffer->buffersize -= 1;

		return true;
	}

} //End of buffer_deleteOldest
     1c8:	08 95       	ret

000001ca <buffer_add>:
 * @param *buffer: Pointer to a Circluar Buffer
 * @param value1: Value1 to be added to the buffer's first column
 * @param value2: Value2 to be added to the buffer's second column
 * @return true, if the value is added successfully
 */
bool buffer_add(CircularBuffer *buffer, uint16_t value1, uint16_t value2) {
     1ca:	ef 92       	push	r14
     1cc:	ff 92       	push	r15
     1ce:	0f 93       	push	r16
     1d0:	1f 93       	push	r17
     1d2:	cf 93       	push	r28
     1d4:	df 93       	push	r29
     1d6:	ec 01       	movw	r28, r24
     1d8:	8b 01       	movw	r16, r22
     1da:	7a 01       	movw	r14, r20

	uint8_t next = (unsigned int)(buffer->head + 1) % buffer->maxBuffersize;
     1dc:	2c 81       	ldd	r18, Y+4	; 0x04
     1de:	82 2f       	mov	r24, r18
     1e0:	90 e0       	ldi	r25, 0x00	; 0
     1e2:	01 96       	adiw	r24, 0x01	; 1
     1e4:	6e 81       	ldd	r22, Y+6	; 0x06
     1e6:	70 e0       	ldi	r23, 0x00	; 0
     1e8:	0e 94 36 08 	call	0x106c	; 0x106c <__udivmodhi4>
     1ec:	48 2f       	mov	r20, r24

	if (next != buffer->tail) {
     1ee:	8d 81       	ldd	r24, Y+5	; 0x05
     1f0:	84 17       	cp	r24, r20
     1f2:	d1 f0       	breq	.+52     	; 0x228 <buffer_add+0x5e>
		//The buffer is not full => add value to the buffer

		buffer->bufferData1_p[buffer->head] = value1;
     1f4:	30 e0       	ldi	r19, 0x00	; 0
     1f6:	22 0f       	add	r18, r18
     1f8:	33 1f       	adc	r19, r19
     1fa:	88 81       	ld	r24, Y
     1fc:	99 81       	ldd	r25, Y+1	; 0x01
     1fe:	82 0f       	add	r24, r18
     200:	93 1f       	adc	r25, r19
     202:	fc 01       	movw	r30, r24
     204:	11 83       	std	Z+1, r17	; 0x01
     206:	00 83       	st	Z, r16
		buffer->bufferData2_p[buffer->head] = value2;
     208:	8c 81       	ldd	r24, Y+4	; 0x04
     20a:	90 e0       	ldi	r25, 0x00	; 0
     20c:	88 0f       	add	r24, r24
     20e:	99 1f       	adc	r25, r25
     210:	2a 81       	ldd	r18, Y+2	; 0x02
     212:	3b 81       	ldd	r19, Y+3	; 0x03
     214:	82 0f       	add	r24, r18
     216:	93 1f       	adc	r25, r19
     218:	fc 01       	movw	r30, r24
     21a:	f1 82       	std	Z+1, r15	; 0x01
     21c:	e0 82       	st	Z, r14
		buffer->head = next;
     21e:	4c 83       	std	Y+4, r20	; 0x04
		buffer->buffersize += 1;
     220:	8f 81       	ldd	r24, Y+7	; 0x07
     222:	8f 5f       	subi	r24, 0xFF	; 255
     224:	8f 83       	std	Y+7, r24	; 0x07
     226:	08 c0       	rjmp	.+16     	; 0x238 <buffer_add+0x6e>
	} else {
		//The buffer is full => delete oldest element and add the new value
		buffer_delete_oldest(buffer);
     228:	ce 01       	movw	r24, r28
     22a:	0e 94 d4 00 	call	0x1a8	; 0x1a8 <buffer_delete_oldest>
		buffer_add(buffer,value1,value2);
     22e:	ce 01       	movw	r24, r28
     230:	b8 01       	movw	r22, r16
     232:	a7 01       	movw	r20, r14
     234:	0e 94 e5 00 	call	0x1ca	; 0x1ca <buffer_add>
	}

	return true;
}
     238:	81 e0       	ldi	r24, 0x01	; 1
     23a:	df 91       	pop	r29
     23c:	cf 91       	pop	r28
     23e:	1f 91       	pop	r17
     240:	0f 91       	pop	r16
     242:	ff 90       	pop	r15
     244:	ef 90       	pop	r14
     246:	08 95       	ret

00000248 <buffer_get_values>:
 * @param  pos: Position in the buffer
 * @param  value1: Value at pos from the first column
 * @param  value2: Value at pos from the second column 
 * @return the value at the given position in the buffer
 */
bool buffer_get_values(CircularBuffer *buffer, uint16_t *value1, uint16_t *value2) {
     248:	dc 01       	movw	r26, r24
	//uint8_t ind = (uint8_t)(buffer->tail + pos) % buffer->maxBuffersize;
	
	//Return the 
	uint8_t ind = buffer->tail; 

	*value1 = buffer->bufferData1_p[ind];
     24a:	15 96       	adiw	r26, 0x05	; 5
     24c:	2c 91       	ld	r18, X
     24e:	15 97       	sbiw	r26, 0x05	; 5
     250:	30 e0       	ldi	r19, 0x00	; 0
     252:	22 0f       	add	r18, r18
     254:	33 1f       	adc	r19, r19
     256:	ed 91       	ld	r30, X+
     258:	fc 91       	ld	r31, X
     25a:	11 97       	sbiw	r26, 0x01	; 1
     25c:	e2 0f       	add	r30, r18
     25e:	f3 1f       	adc	r31, r19
     260:	80 81       	ld	r24, Z
     262:	91 81       	ldd	r25, Z+1	; 0x01
     264:	fb 01       	movw	r30, r22
     266:	91 83       	std	Z+1, r25	; 0x01
     268:	80 83       	st	Z, r24
	*value2 = buffer->bufferData2_p[ind]; 
     26a:	12 96       	adiw	r26, 0x02	; 2
     26c:	8d 91       	ld	r24, X+
     26e:	9c 91       	ld	r25, X
     270:	13 97       	sbiw	r26, 0x03	; 3
     272:	82 0f       	add	r24, r18
     274:	93 1f       	adc	r25, r19
     276:	fc 01       	movw	r30, r24
     278:	80 81       	ld	r24, Z
     27a:	91 81       	ldd	r25, Z+1	; 0x01
     27c:	fa 01       	movw	r30, r20
     27e:	91 83       	std	Z+1, r25	; 0x01
     280:	80 83       	st	Z, r24
	
	return buffer_delete_oldest(buffer); 
     282:	cd 01       	movw	r24, r26
     284:	0e 94 d4 00 	call	0x1a8	; 0x1a8 <buffer_delete_oldest>

} //End of buffer_getValue
     288:	08 95       	ret

0000028a <buffer_is_empty>:
 * Get the state of the buffer. 
 *
 * @param buffer: Pointer to a circular buffer
 * @return true, iff the buffer is empty, false else 
 */
bool buffer_is_empty(CircularBuffer *buffer) {
     28a:	fc 01       	movw	r30, r24
     28c:	81 e0       	ldi	r24, 0x01	; 1
     28e:	24 81       	ldd	r18, Z+4	; 0x04
     290:	95 81       	ldd	r25, Z+5	; 0x05
     292:	29 13       	cpse	r18, r25
     294:	80 e0       	ldi	r24, 0x00	; 0
		return true; 
	} else {
		return false; 
	}
	
}
     296:	08 95       	ret

00000298 <buffer_get_size>:
 * @param buffer: Pointer to the circular buffer
 * @return size of the buffer 
 */
uint8_t buffer_get_size(CircularBuffer *buffer) {
	return buffer->buffersize; 
}
     298:	fc 01       	movw	r30, r24
     29a:	87 81       	ldd	r24, Z+7	; 0x07
     29c:	08 95       	ret

0000029e <I2C_init>:
 * @return false, if Bitrate is too high 
 */ 
bool I2C_init(uint32_t bitrate) {
	
	//Init the I2C bitrate and prescaler   
	TWSR = 0;                       //no prescaler => presaclaer = 1
     29e:	10 92 b9 00 	sts	0x00B9, r1
	TWBR = ((F_CPU/BITRATE)-16)/2;  //should be >10 for stable operation 
     2a2:	e8 eb       	ldi	r30, 0xB8	; 184
     2a4:	f0 e0       	ldi	r31, 0x00	; 0
     2a6:	80 e2       	ldi	r24, 0x20	; 32
     2a8:	80 83       	st	Z, r24
	
	//Check if TWBR is high enough (>10)
	if(TWBR>10) {
     2aa:	90 81       	ld	r25, Z
 * Init the use of I2C 
 *
 * @param bitrate [Hz]
 * @return false, if Bitrate is too high 
 */ 
bool I2C_init(uint32_t bitrate) {
     2ac:	81 e0       	ldi	r24, 0x01	; 1
     2ae:	9b 30       	cpi	r25, 0x0B	; 11
     2b0:	08 f4       	brcc	.+2      	; 0x2b4 <I2C_init+0x16>
     2b2:	80 e0       	ldi	r24, 0x00	; 0
		return true; 
	}		
	
	//Some error occured => return false 	
	return false;
}
     2b4:	08 95       	ret

000002b6 <I2C_start>:
 * Start the I2C Master 
 *
 * @param address: 7bit slave address 
 * @param access: read or write (1 = read, 0 = write) 
 */
bool I2C_start(uint8_t address, uint8_t access) {
     2b6:	cf 93       	push	r28
     2b8:	df 93       	push	r29
	
	timeout = 0; //Reset the number of retries 
     2ba:	10 92 1a 01 	sts	0x011A, r1
		twst = TW_STATUS & 0xF8;
		if ( (twst != TW_START) && (twst != TW_REP_START)) return false;

		//send device address
		//address = address | access;
		TWDR = ((address<<1) | access);
     2be:	88 0f       	add	r24, r24
     2c0:	68 2b       	or	r22, r24
	//serial_send_string(" I2C Start...\n"); 

	while(true) {

		// send START condition
		TWCR = (1<<TWINT) | (1<<TWSTA) | (1<<TWEN);
     2c2:	ec eb       	ldi	r30, 0xBC	; 188
     2c4:	f0 e0       	ldi	r31, 0x00	; 0
     2c6:	24 ea       	ldi	r18, 0xA4	; 164
		}
		
		//serial_send_string("   transmission completed"); 

		// check value of TWI Status Register. Mask prescaler bits.
		twst = TW_STATUS & 0xF8;
     2c8:	a9 eb       	ldi	r26, 0xB9	; 185
     2ca:	b0 e0       	ldi	r27, 0x00	; 0
		if ( (twst != TW_START) && (twst != TW_REP_START)) return false;

		//send device address
		//address = address | access;
		TWDR = ((address<<1) | access);
     2cc:	cb eb       	ldi	r28, 0xBB	; 187
     2ce:	d0 e0       	ldi	r29, 0x00	; 0
		TWCR = (1<<TWINT) | (1<<TWEN);
     2d0:	34 e8       	ldi	r19, 0x84	; 132
		if ( (twst == TW_MT_SLA_NACK )||(twst ==TW_MR_DATA_NACK) ) {
			//We received NACK => the device is busy => we continue polling it 
			//serial_send_string("   LIDAR busy!");
			
			//device busy, send stop condition to terminate write operation
			TWCR = (1<<TWINT) | (1<<TWEN) | (1<<TWSTO);
     2d2:	84 e9       	ldi	r24, 0x94	; 148
	//serial_send_string(" I2C Start...\n"); 

	while(true) {

		// send START condition
		TWCR = (1<<TWINT) | (1<<TWSTA) | (1<<TWEN);
     2d4:	20 83       	st	Z, r18

		// wait until transmission completed
		while(!(TWCR & (1<<TWINT))) {
     2d6:	07 c0       	rjmp	.+14     	; 0x2e6 <I2C_start+0x30>
			timeout++; 
     2d8:	90 91 1a 01 	lds	r25, 0x011A
     2dc:	9f 5f       	subi	r25, 0xFF	; 255
     2de:	90 93 1a 01 	sts	0x011A, r25
			
			if(timeout>TIMEOUT) {
     2e2:	95 36       	cpi	r25, 0x65	; 101
     2e4:	48 f5       	brcc	.+82     	; 0x338 <I2C_start+0x82>

		// send START condition
		TWCR = (1<<TWINT) | (1<<TWSTA) | (1<<TWEN);

		// wait until transmission completed
		while(!(TWCR & (1<<TWINT))) {
     2e6:	90 81       	ld	r25, Z
     2e8:	99 23       	and	r25, r25
     2ea:	b4 f7       	brge	.-20     	; 0x2d8 <I2C_start+0x22>
		}
		
		//serial_send_string("   transmission completed"); 

		// check value of TWI Status Register. Mask prescaler bits.
		twst = TW_STATUS & 0xF8;
     2ec:	9c 91       	ld	r25, X
     2ee:	98 7f       	andi	r25, 0xF8	; 248
		if ( (twst != TW_START) && (twst != TW_REP_START)) return false;
     2f0:	98 30       	cpi	r25, 0x08	; 8
     2f2:	11 f0       	breq	.+4      	; 0x2f8 <I2C_start+0x42>
     2f4:	90 31       	cpi	r25, 0x10	; 16
     2f6:	11 f5       	brne	.+68     	; 0x33c <I2C_start+0x86>

		//send device address
		//address = address | access;
		TWDR = ((address<<1) | access);
     2f8:	68 83       	st	Y, r22
		TWCR = (1<<TWINT) | (1<<TWEN);
     2fa:	30 83       	st	Z, r19

		// wail until transmission completed and ACK/NACK has been received
		while(!(TWCR & (1<<TWINT))){
     2fc:	07 c0       	rjmp	.+14     	; 0x30c <I2C_start+0x56>
			timeout++;
     2fe:	90 91 1a 01 	lds	r25, 0x011A
     302:	9f 5f       	subi	r25, 0xFF	; 255
     304:	90 93 1a 01 	sts	0x011A, r25
			
			if(timeout>TIMEOUT) {
     308:	95 36       	cpi	r25, 0x65	; 101
     30a:	d0 f4       	brcc	.+52     	; 0x340 <I2C_start+0x8a>
		//address = address | access;
		TWDR = ((address<<1) | access);
		TWCR = (1<<TWINT) | (1<<TWEN);

		// wail until transmission completed and ACK/NACK has been received
		while(!(TWCR & (1<<TWINT))){
     30c:	90 81       	ld	r25, Z
     30e:	99 23       	and	r25, r25
     310:	b4 f7       	brge	.-20     	; 0x2fe <I2C_start+0x48>
		}
		
		//serial_send_string("   ACK/NACK received"); 

		// check value of TWI Status Register. Mask prescaler bits.
		twst = TW_STATUS & 0xF8;	
     312:	9c 91       	ld	r25, X
     314:	98 7f       	andi	r25, 0xF8	; 248
	
		if ( (twst == TW_MT_SLA_NACK )||(twst ==TW_MR_DATA_NACK) ) {
     316:	90 32       	cpi	r25, 0x20	; 32
     318:	11 f0       	breq	.+4      	; 0x31e <I2C_start+0x68>
     31a:	98 35       	cpi	r25, 0x58	; 88
     31c:	99 f4       	brne	.+38     	; 0x344 <I2C_start+0x8e>
			//We received NACK => the device is busy => we continue polling it 
			//serial_send_string("   LIDAR busy!");
			
			//device busy, send stop condition to terminate write operation
			TWCR = (1<<TWINT) | (1<<TWEN) | (1<<TWSTO);
     31e:	80 83       	st	Z, r24
		
			// wait until stop condition is executed and bus released
			while(TWCR & (1<<TWSTO)) {
     320:	07 c0       	rjmp	.+14     	; 0x330 <I2C_start+0x7a>
				timeout++;
     322:	90 91 1a 01 	lds	r25, 0x011A
     326:	9f 5f       	subi	r25, 0xFF	; 255
     328:	90 93 1a 01 	sts	0x011A, r25
				
				if(timeout>TIMEOUT) {
     32c:	95 36       	cpi	r25, 0x65	; 101
     32e:	60 f4       	brcc	.+24     	; 0x348 <I2C_start+0x92>
			
			//device busy, send stop condition to terminate write operation
			TWCR = (1<<TWINT) | (1<<TWEN) | (1<<TWSTO);
		
			// wait until stop condition is executed and bus released
			while(TWCR & (1<<TWSTO)) {
     330:	90 81       	ld	r25, Z
     332:	94 fd       	sbrc	r25, 4
     334:	f6 cf       	rjmp	.-20     	; 0x322 <I2C_start+0x6c>
     336:	ce cf       	rjmp	.-100    	; 0x2d4 <I2C_start+0x1e>
		// wait until transmission completed
		while(!(TWCR & (1<<TWINT))) {
			timeout++; 
			
			if(timeout>TIMEOUT) {
				return false; 
     338:	80 e0       	ldi	r24, 0x00	; 0
     33a:	07 c0       	rjmp	.+14     	; 0x34a <I2C_start+0x94>
		
		//serial_send_string("   transmission completed"); 

		// check value of TWI Status Register. Mask prescaler bits.
		twst = TW_STATUS & 0xF8;
		if ( (twst != TW_START) && (twst != TW_REP_START)) return false;
     33c:	80 e0       	ldi	r24, 0x00	; 0
     33e:	05 c0       	rjmp	.+10     	; 0x34a <I2C_start+0x94>
		// wail until transmission completed and ACK/NACK has been received
		while(!(TWCR & (1<<TWINT))){
			timeout++;
			
			if(timeout>TIMEOUT) {
				return false;
     340:	80 e0       	ldi	r24, 0x00	; 0
     342:	03 c0       	rjmp	.+6      	; 0x34a <I2C_start+0x94>

		break;
	}

	//serial_send_string("...end!\n"); 
	return true;
     344:	81 e0       	ldi	r24, 0x01	; 1
     346:	01 c0       	rjmp	.+2      	; 0x34a <I2C_start+0x94>
			// wait until stop condition is executed and bus released
			while(TWCR & (1<<TWSTO)) {
				timeout++;
				
				if(timeout>TIMEOUT) {
					return false;
     348:	80 e0       	ldi	r24, 0x00	; 0
		break;
	}

	//serial_send_string("...end!\n"); 
	return true;
}
     34a:	df 91       	pop	r29
     34c:	cf 91       	pop	r28
     34e:	08 95       	ret

00000350 <I2C_stop>:
 * Stop the I2C Master 
 *
 */
void I2C_stop(void) {
	
	timeout = 0; //Reset the number of retries 
     350:	10 92 1a 01 	sts	0x011A, r1
	
    //Send Stop condition 
    TWCR = (1<<TWINT) | (1<<TWEN) | (1<<TWSTO);
     354:	84 e9       	ldi	r24, 0x94	; 148
     356:	80 93 bc 00 	sts	0x00BC, r24
    
    // wait until stop condition is executed and bus released
    while(TWCR & (1<<TWSTO)) {
     35a:	ec eb       	ldi	r30, 0xBC	; 188
     35c:	f0 e0       	ldi	r31, 0x00	; 0
     35e:	07 c0       	rjmp	.+14     	; 0x36e <I2C_stop+0x1e>
		timeout++;
     360:	80 91 1a 01 	lds	r24, 0x011A
     364:	8f 5f       	subi	r24, 0xFF	; 255
     366:	80 93 1a 01 	sts	0x011A, r24
		
		if(timeout>TIMEOUT) {
     36a:	85 36       	cpi	r24, 0x65	; 101
     36c:	18 f4       	brcc	.+6      	; 0x374 <I2C_stop+0x24>
	
    //Send Stop condition 
    TWCR = (1<<TWINT) | (1<<TWEN) | (1<<TWSTO);
    
    // wait until stop condition is executed and bus released
    while(TWCR & (1<<TWSTO)) {
     36e:	80 81       	ld	r24, Z
     370:	84 fd       	sbrc	r24, 4
     372:	f6 cf       	rjmp	.-20     	; 0x360 <I2C_stop+0x10>
     374:	08 95       	ret

00000376 <I2C_write_byte>:
 *
 * @param bytes 
 */
bool I2C_write_byte(uint8_t byte) {
	
	timeout = 0; //Reset the number of retries 
     376:	10 92 1a 01 	sts	0x011A, r1
	
	uint8_t   twst;
	
	//Send data to the previously addressed device
	TWDR = byte;
     37a:	80 93 bb 00 	sts	0x00BB, r24
	TWCR = (1<<TWINT)|(1<<TWEN);
     37e:	84 e8       	ldi	r24, 0x84	; 132
     380:	80 93 bc 00 	sts	0x00BC, r24
	
	//serial_send_string("  write byte...");
	
	//Wait until transmission completed
	while (!(TWCR & (1<<TWINT))) {
     384:	ec eb       	ldi	r30, 0xBC	; 188
     386:	f0 e0       	ldi	r31, 0x00	; 0
     388:	07 c0       	rjmp	.+14     	; 0x398 <I2C_write_byte+0x22>
		timeout++;
     38a:	80 91 1a 01 	lds	r24, 0x011A
     38e:	8f 5f       	subi	r24, 0xFF	; 255
     390:	80 93 1a 01 	sts	0x011A, r24
		
		if(timeout>TIMEOUT) {
     394:	85 36       	cpi	r24, 0x65	; 101
     396:	58 f4       	brcc	.+22     	; 0x3ae <I2C_write_byte+0x38>
	TWCR = (1<<TWINT)|(1<<TWEN);
	
	//serial_send_string("  write byte...");
	
	//Wait until transmission completed
	while (!(TWCR & (1<<TWINT))) {
     398:	80 81       	ld	r24, Z
     39a:	88 23       	and	r24, r24
     39c:	b4 f7       	brge	.-20     	; 0x38a <I2C_write_byte+0x14>
	}
	
	//serial_send_string("  byte written!"); 

	//Check value of TWI Status Register. Mask prescalor bits
	twst = TWSR & 0xF8;
     39e:	90 91 b9 00 	lds	r25, 0x00B9
     3a2:	98 7f       	andi	r25, 0xF8	; 248
/**
 * Write a Byte to the slave 
 *
 * @param bytes 
 */
bool I2C_write_byte(uint8_t byte) {
     3a4:	81 e0       	ldi	r24, 0x01	; 1
     3a6:	98 32       	cpi	r25, 0x28	; 40
     3a8:	19 f4       	brne	.+6      	; 0x3b0 <I2C_write_byte+0x3a>
     3aa:	80 e0       	ldi	r24, 0x00	; 0
     3ac:	08 95       	ret
	//Wait until transmission completed
	while (!(TWCR & (1<<TWINT))) {
		timeout++;
		
		if(timeout>TIMEOUT) {
			return false;
     3ae:	80 e0       	ldi	r24, 0x00	; 0
	if (twst != TWI_MTX_DATA_ACK) {
		return true;
	}	
		
	return false;
}
     3b0:	08 95       	ret

000003b2 <I2C_read_byte>:
 *
 * @return byte read
 */
uint8_t I2C_read_byte(void) {
	
	timeout = 0; //Reset the number of retries 
     3b2:	10 92 1a 01 	sts	0x011A, r1
	
	//serial_send_string("  read byte..."); 
	TWCR = (1<<TWINT)|(1<<TWEN)|(1<<TWEA);
     3b6:	84 ec       	ldi	r24, 0xC4	; 196
     3b8:	80 93 bc 00 	sts	0x00BC, r24
	while (!(TWCR & (1<<TWINT))) {
     3bc:	ec eb       	ldi	r30, 0xBC	; 188
     3be:	f0 e0       	ldi	r31, 0x00	; 0
     3c0:	07 c0       	rjmp	.+14     	; 0x3d0 <I2C_read_byte+0x1e>
		timeout++;
     3c2:	80 91 1a 01 	lds	r24, 0x011A
     3c6:	8f 5f       	subi	r24, 0xFF	; 255
     3c8:	80 93 1a 01 	sts	0x011A, r24
		
		if(timeout>TIMEOUT) {
     3cc:	85 36       	cpi	r24, 0x65	; 101
     3ce:	30 f4       	brcc	.+12     	; 0x3dc <I2C_read_byte+0x2a>
	
	timeout = 0; //Reset the number of retries 
	
	//serial_send_string("  read byte..."); 
	TWCR = (1<<TWINT)|(1<<TWEN)|(1<<TWEA);
	while (!(TWCR & (1<<TWINT))) {
     3d0:	80 81       	ld	r24, Z
     3d2:	88 23       	and	r24, r24
     3d4:	b4 f7       	brge	.-20     	; 0x3c2 <I2C_read_byte+0x10>
		}
	}

	//serial_send_string("  byte read"); 

	return TWDR;
     3d6:	80 91 bb 00 	lds	r24, 0x00BB
     3da:	08 95       	ret
	TWCR = (1<<TWINT)|(1<<TWEN)|(1<<TWEA);
	while (!(TWCR & (1<<TWINT))) {
		timeout++;
		
		if(timeout>TIMEOUT) {
			return false;
     3dc:	80 e0       	ldi	r24, 0x00	; 0
	}

	//serial_send_string("  byte read"); 

	return TWDR;
}
     3de:	08 95       	ret

000003e0 <I2C_read_last_byte>:
 * 
 * @return last byte read
 */
uint8_t I2C_read_last_byte(void) {
	
	timeout = 0; //Reset the number of retries 
     3e0:	10 92 1a 01 	sts	0x011A, r1
	
	TWCR = (1<<TWINT)|(1<<TWEN);
     3e4:	84 e8       	ldi	r24, 0x84	; 132
     3e6:	80 93 bc 00 	sts	0x00BC, r24
	while(!(TWCR & (1<<TWINT))) {
     3ea:	ec eb       	ldi	r30, 0xBC	; 188
     3ec:	f0 e0       	ldi	r31, 0x00	; 0
     3ee:	07 c0       	rjmp	.+14     	; 0x3fe <I2C_read_last_byte+0x1e>
		timeout++;
     3f0:	80 91 1a 01 	lds	r24, 0x011A
     3f4:	8f 5f       	subi	r24, 0xFF	; 255
     3f6:	80 93 1a 01 	sts	0x011A, r24
		
		if(timeout>TIMEOUT) {
     3fa:	85 36       	cpi	r24, 0x65	; 101
     3fc:	30 f4       	brcc	.+12     	; 0x40a <I2C_read_last_byte+0x2a>
uint8_t I2C_read_last_byte(void) {
	
	timeout = 0; //Reset the number of retries 
	
	TWCR = (1<<TWINT)|(1<<TWEN);
	while(!(TWCR & (1<<TWINT))) {
     3fe:	80 81       	ld	r24, Z
     400:	88 23       	and	r24, r24
     402:	b4 f7       	brge	.-20     	; 0x3f0 <I2C_read_last_byte+0x10>
		if(timeout>TIMEOUT) {
			return false;
		}
	}
	
	return TWDR;
     404:	80 91 bb 00 	lds	r24, 0x00BB
     408:	08 95       	ret
	TWCR = (1<<TWINT)|(1<<TWEN);
	while(!(TWCR & (1<<TWINT))) {
		timeout++;
		
		if(timeout>TIMEOUT) {
			return false;
     40a:	80 e0       	ldi	r24, 0x00	; 0
		}
	}
	
	return TWDR;
}
     40c:	08 95       	ret

0000040e <lidar_get_distance>:
 * @return The latest known distance 
 */
uint16_t lidar_get_distance(void) {
	
	return state.last_distance; 
}
     40e:	80 91 1b 01 	lds	r24, 0x011B
     412:	90 91 1c 01 	lds	r25, 0x011C
     416:	08 95       	ret

00000418 <write_register>:
 * Write a value to a register 
 *
 * @param reg: Name of the register 
 * @param data: Data to be written to the register  
 */ 
bool write_register(uint8_t reg, uint8_t data) {
     418:	cf 93       	push	r28
     41a:	df 93       	push	r29
     41c:	d8 2f       	mov	r29, r24
     41e:	c6 2f       	mov	r28, r22
	
	//serial_send_string("WRITE..."); 
	
	//Start the I2C Master interface. 
	//We want to write a register => access-type is WRITE 
	if(!I2C_start (SLAVE_ADDR, WRITE)) {
     420:	82 e6       	ldi	r24, 0x62	; 98
     422:	60 e0       	ldi	r22, 0x00	; 0
     424:	0e 94 5b 01 	call	0x2b6	; 0x2b6 <I2C_start>
     428:	88 23       	and	r24, r24
     42a:	21 f4       	brne	.+8      	; 0x434 <write_register+0x1c>
		//I2C could not be started => nothing we can do against this, might flag unhappy...
		//Anyway, stop the I2C Master interface
		
		//serial_send_string("can not write"); 
		I2C_stop();
     42c:	0e 94 a8 01 	call	0x350	; 0x350 <I2C_stop>
		
		return false; 
     430:	80 e0       	ldi	r24, 0x00	; 0
     432:	09 c0       	rjmp	.+18     	; 0x446 <write_register+0x2e>
	} else {
		//I2C Master Interface is started => we can transfer the bytes to the slave 
		
		//Send Register address 
		I2C_write_byte(reg); 
     434:	8d 2f       	mov	r24, r29
     436:	0e 94 bb 01 	call	0x376	; 0x376 <I2C_write_byte>
		
		//Send Value the register should contain 
		I2C_write_byte(data);
     43a:	8c 2f       	mov	r24, r28
     43c:	0e 94 bb 01 	call	0x376	; 0x376 <I2C_write_byte>
		
		//Close the Master-Interface 
		I2C_stop(); 
     440:	0e 94 a8 01 	call	0x350	; 0x350 <I2C_stop>
	
	//serial_send_string("Write OK");
	//_delay_ms(3);  
	
	//Everything is OK => return true
	return true; 
     444:	81 e0       	ldi	r24, 0x01	; 1
}
     446:	df 91       	pop	r29
     448:	cf 91       	pop	r28
     44a:	08 95       	ret

0000044c <lidar_init>:
bool lidar_init(void) {
	
	bool status = true;		//Status of the initialization (we assume that everything is OK at the beginning) 
	
	//Start the I2C Interface 
	if(!I2C_init(BITRATE)) {
     44c:	60 ea       	ldi	r22, 0xA0	; 160
     44e:	76 e8       	ldi	r23, 0x86	; 134
     450:	81 e0       	ldi	r24, 0x01	; 1
     452:	90 e0       	ldi	r25, 0x00	; 0
     454:	0e 94 4f 01 	call	0x29e	; 0x29e <I2C_init>
     458:	88 23       	and	r24, r24
     45a:	29 f0       	breq	.+10     	; 0x466 <lidar_init+0x1a>
		return false; 
	}
	
	
	//Reset the lidar to defaults for Distance Measurements 
	status = status && write_register(I_COMMAND_REG, 0x00); 
     45c:	80 e0       	ldi	r24, 0x00	; 0
     45e:	60 e0       	ldi	r22, 0x00	; 0
     460:	0e 94 0c 02 	call	0x418	; 0x418 <write_register>
	
	//Return the status after all initialization is done
	return status; 
     464:	08 95       	ret
	//Start the I2C Interface 
	if(!I2C_init(BITRATE)) {
		//An error occurred during initialization of the I2C interface 
		//Nothing we can do about this... might flag unhappy... 
		
		return false; 
     466:	80 e0       	ldi	r24, 0x00	; 0
	//Reset the lidar to defaults for Distance Measurements 
	status = status && write_register(I_COMMAND_REG, 0x00); 
	
	//Return the status after all initialization is done
	return status; 
}
     468:	08 95       	ret

0000046a <read_register>:
 *
 * @param reg: Name of the register 
 * @param numofbytes: number of Bytes to be read (1,2) 
 * @param arraytosafe: Array with two bytes, where the result is stored 
 */
bool read_register(uint8_t reg, uint8_t numofbytes, uint8_t arraytosafe[2]) {
     46a:	0f 93       	push	r16
     46c:	1f 93       	push	r17
     46e:	cf 93       	push	r28
     470:	df 93       	push	r29
     472:	08 2f       	mov	r16, r24
     474:	16 2f       	mov	r17, r22
     476:	ea 01       	movw	r28, r20
	
	//serial_send_string("READ..."); 
	
	//Start the I2C Master interface
	//We want tor write a register first => access-type is WRITE 
	if(!I2C_start(SLAVE_ADDR, WRITE)) {
     478:	82 e6       	ldi	r24, 0x62	; 98
     47a:	60 e0       	ldi	r22, 0x00	; 0
     47c:	0e 94 5b 01 	call	0x2b6	; 0x2b6 <I2C_start>
     480:	88 23       	and	r24, r24
     482:	21 f4       	brne	.+8      	; 0x48c <read_register+0x22>
		//I2C could not be started => nothing we can do against this, might flag unhappy...
		//Anyway, stop the I2C Master interface
				
		I2C_stop();
     484:	0e 94 a8 01 	call	0x350	; 0x350 <I2C_stop>
		
		//serial_send_string("I2C Error");
		
		return false; 
     488:	80 e0       	ldi	r24, 0x00	; 0
     48a:	28 c0       	rjmp	.+80     	; 0x4dc <read_register+0x72>
	} else {
		//I2C Master Interface is started => we can transfer the bytes to the slave
		//serial_send_string("send Bytes"); 
		
		//If two consecutive registers should be read, the address must contain a 1 as bit7
		if(numofbytes == 2) {
     48c:	12 30       	cpi	r17, 0x02	; 2
     48e:	09 f4       	brne	.+2      	; 0x492 <read_register+0x28>
			//We want to write two consecutive registers => we must set bit7 of the register address to 1
			reg = 0x80 | reg; 
     490:	00 68       	ori	r16, 0x80	; 128
		}
		
		//Send the register address to be read
		I2C_write_byte(reg); 
     492:	80 2f       	mov	r24, r16
     494:	0e 94 bb 01 	call	0x376	; 0x376 <I2C_write_byte>
		
		//Stop the Interface 
		I2C_stop();
     498:	0e 94 a8 01 	call	0x350	; 0x350 <I2C_stop>
		
		//Start the I2C Master interface
		//This time we want tor read a register => access-type is READ
		if(!I2C_start(SLAVE_ADDR, READ)) {
     49c:	82 e6       	ldi	r24, 0x62	; 98
     49e:	61 e0       	ldi	r22, 0x01	; 1
     4a0:	0e 94 5b 01 	call	0x2b6	; 0x2b6 <I2C_start>
     4a4:	88 23       	and	r24, r24
     4a6:	21 f4       	brne	.+8      	; 0x4b0 <read_register+0x46>
			//I2C could not be started => nothing we can do against this, might flag unhappy... 
			//Anyway, stop the I2C Master interface 
			
			I2C_stop(); 
     4a8:	0e 94 a8 01 	call	0x350	; 0x350 <I2C_stop>
			
			//serial_send_string("Error: no read");
			
			return false; 
     4ac:	80 e0       	ldi	r24, 0x00	; 0
     4ae:	16 c0       	rjmp	.+44     	; 0x4dc <read_register+0x72>
			//I2C Master Interface is started => we can read the bytes from the slave 
			
			//serial_send_string(" try to read"); 
			
			//Read one or two bytes from the Slave 
			if(numofbytes == 1) {
     4b0:	11 30       	cpi	r17, 0x01	; 1
     4b2:	21 f4       	brne	.+8      	; 0x4bc <read_register+0x52>
				//Only one byte is to be read 
				
				arraytosafe[0] = I2C_read_byte(); //The first byte is the last byte
     4b4:	0e 94 d9 01 	call	0x3b2	; 0x3b2 <I2C_read_byte>
     4b8:	88 83       	st	Y, r24
     4ba:	0d c0       	rjmp	.+26     	; 0x4d6 <read_register+0x6c>
			} else if(numofbytes == 2) {
     4bc:	12 30       	cpi	r17, 0x02	; 2
     4be:	39 f4       	brne	.+14     	; 0x4ce <read_register+0x64>
				//Two bytes are to be read 
				
				arraytosafe[0] = I2C_read_byte();		//Read first byte 
     4c0:	0e 94 d9 01 	call	0x3b2	; 0x3b2 <I2C_read_byte>
     4c4:	88 83       	st	Y, r24
				//serial_send_string(" read first byte"); 
				arraytosafe[1] = I2C_read_byte();		//Read second byte <=> last byte 
     4c6:	0e 94 d9 01 	call	0x3b2	; 0x3b2 <I2C_read_byte>
     4ca:	89 83       	std	Y+1, r24	; 0x01
     4cc:	04 c0       	rjmp	.+8      	; 0x4d6 <read_register+0x6c>
				//serial_send_string(" read second byte");  
				
				//Stop the Master Interface for Reading 
				//I2C_stop(); 
			} else {
				I2C_stop(); 
     4ce:	0e 94 a8 01 	call	0x350	; 0x350 <I2C_stop>
				
				return false; 
     4d2:	80 e0       	ldi	r24, 0x00	; 0
     4d4:	03 c0       	rjmp	.+6      	; 0x4dc <read_register+0x72>
			}
			
			//Stop the Master-interface for Writing 
			I2C_stop(); 
     4d6:	0e 94 a8 01 	call	0x350	; 0x350 <I2C_stop>
	} //END OF I2C_WRITE
	
	//serial_send_string("EOF read"); 
	
	//Everything is OK => return true
	return true; 
     4da:	81 e0       	ldi	r24, 0x01	; 1
     4dc:	df 91       	pop	r29
     4de:	cf 91       	pop	r28
     4e0:	1f 91       	pop	r17
     4e2:	0f 91       	pop	r16
     4e4:	08 95       	ret

000004e6 <lidar_measure>:
/**
 * Read the distance from the LIDAR Sensor 
 *
 * @return the measured distance [cm] (Note: 16bit value!) 
 */ 
uint16_t lidar_measure(void) {
     4e6:	cf 93       	push	r28
     4e8:	df 93       	push	r29
     4ea:	00 d0       	rcall	.+0      	; 0x4ec <lidar_measure+0x6>
     4ec:	cd b7       	in	r28, 0x3d	; 61
     4ee:	de b7       	in	r29, 0x3e	; 62
	uint8_t result[2]; 
	
	if(!write_register(0x00,0x04)) {
     4f0:	80 e0       	ldi	r24, 0x00	; 0
     4f2:	64 e0       	ldi	r22, 0x04	; 4
     4f4:	0e 94 0c 02 	call	0x418	; 0x418 <write_register>
     4f8:	88 23       	and	r24, r24
     4fa:	31 f1       	breq	.+76     	; 0x548 <__stack+0x49>
	#else
		//round up by default
		__ticks_dc = (uint32_t)(ceil(fabs(__tmp)));
	#endif

	__builtin_avr_delay_cycles(__ticks_dc);
     4fc:	8f e5       	ldi	r24, 0x5F	; 95
     4fe:	9a ee       	ldi	r25, 0xEA	; 234
     500:	01 97       	sbiw	r24, 0x01	; 1
     502:	f1 f7       	brne	.-4      	; 0x500 <__stack+0x1>
     504:	00 c0       	rjmp	.+0      	; 0x506 <__stack+0x7>
     506:	00 00       	nop
	//Maybe it is possible to do something else in this time...
	//But be careful. Moving the Servo in this time can lead to a wrong measurement! 
	_delay_ms(30); //Note: This delay is very important! (as soon as it is removed, the software crashes at some point!) 
	
	//Read the Distance from the Register using I2C
	if(!read_register(0x0f,2,result)) {
     508:	8f e0       	ldi	r24, 0x0F	; 15
     50a:	62 e0       	ldi	r22, 0x02	; 2
     50c:	ae 01       	movw	r20, r28
     50e:	4f 5f       	subi	r20, 0xFF	; 255
     510:	5f 4f       	sbci	r21, 0xFF	; 255
     512:	0e 94 35 02 	call	0x46a	; 0x46a <read_register>
     516:	88 23       	and	r24, r24
     518:	d1 f0       	breq	.+52     	; 0x54e <__stack+0x4f>
		return 0; 
	}

	
	//Since we read a new distance from the Sensor, we can store it as the local state 
	state.last_distance = ((result[0] << 8) | result[1]);
     51a:	99 81       	ldd	r25, Y+1	; 0x01
     51c:	80 e0       	ldi	r24, 0x00	; 0
     51e:	2a 81       	ldd	r18, Y+2	; 0x02
     520:	30 e0       	ldi	r19, 0x00	; 0
     522:	82 2b       	or	r24, r18
     524:	93 2b       	or	r25, r19
     526:	90 93 1c 01 	sts	0x011C, r25
     52a:	80 93 1b 01 	sts	0x011B, r24
 
 
	//Check the result: s
	//The LIDAR returns zero, if the measurement was NOT successful. This means that no object is detected inside the measurement range of the LIDAR.
	//In such a case set the measured distance to the maximum range in order to not confuse the filtering process. 
	if(state.last_distance == 0) {
     52e:	00 97       	sbiw	r24, 0x00	; 0
     530:	31 f4       	brne	.+12     	; 0x53e <__stack+0x3f>
		//The LIDAR did not detect anything inside the measurement range => we assign the maximum range 
		
		state.last_distance = LIDAR_MAX_DISTANCE; 
     532:	8c eb       	ldi	r24, 0xBC	; 188
     534:	92 e0       	ldi	r25, 0x02	; 2
     536:	90 93 1c 01 	sts	0x011C, r25
     53a:	80 93 1b 01 	sts	0x011B, r24
	}
	
	
	//serial_send_string("LIDAR OK!"); 
	//Return the current distance 
	return state.last_distance;  
     53e:	80 91 1b 01 	lds	r24, 0x011B
     542:	90 91 1c 01 	lds	r25, 0x011C
     546:	05 c0       	rjmp	.+10     	; 0x552 <__stack+0x53>
uint16_t lidar_measure(void) {
	uint8_t result[2]; 
	
	if(!write_register(0x00,0x04)) {
		//serial_send_string("error measure"); 
		return 0; 
     548:	80 e0       	ldi	r24, 0x00	; 0
     54a:	90 e0       	ldi	r25, 0x00	; 0
     54c:	02 c0       	rjmp	.+4      	; 0x552 <__stack+0x53>
	//Read the Distance from the Register using I2C
	if(!read_register(0x0f,2,result)) {
		//The reading of the registers was NOT successful 
		//Nothing we can do about this... might flag unhappy...
		
		return 0; 
     54e:	80 e0       	ldi	r24, 0x00	; 0
     550:	90 e0       	ldi	r25, 0x00	; 0
	
	//serial_send_string("LIDAR OK!"); 
	//Return the current distance 
	return state.last_distance;  
	
}
     552:	0f 90       	pop	r0
     554:	0f 90       	pop	r0
     556:	df 91       	pop	r29
     558:	cf 91       	pop	r28
     55a:	08 95       	ret

0000055c <measure_init>:
/**
 * Init the measurement function. 
 * => Move the Servo to Starboard
 *
 */
bool measure_init(void) {
     55c:	cf 93       	push	r28
     55e:	df 93       	push	r29
     560:	cd b7       	in	r28, 0x3d	; 61
     562:	de b7       	in	r29, 0x3e	; 62
     564:	28 97       	sbiw	r28, 0x08	; 8
     566:	0f b6       	in	r0, 0x3f	; 63
     568:	f8 94       	cli
     56a:	de bf       	out	0x3e, r29	; 62
     56c:	0f be       	out	0x3f, r0	; 63
     56e:	cd bf       	out	0x3d, r28	; 61
	
	//Move the Servo to start-position 
	servo_set(0); 
     570:	60 e0       	ldi	r22, 0x00	; 0
     572:	70 e0       	ldi	r23, 0x00	; 0
     574:	cb 01       	movw	r24, r22
     576:	0e 94 3e 06 	call	0xc7c	; 0xc7c <servo_set>
	
	//Init the Angle (we start on Starboard) 
	state.angle = 0; 
     57a:	10 92 06 01 	sts	0x0106, r1
     57e:	10 92 05 01 	sts	0x0105, r1
	
	//Set the direction (Starboard to Backboard) 
	state.direction = 1; 
     582:	81 e0       	ldi	r24, 0x01	; 1
     584:	80 93 07 01 	sts	0x0107, r24
	
	//Initialize the Buffer
	obst_buffer = buffer_init(MAX_OBSTACLE_NUMBER); 
     588:	84 e1       	ldi	r24, 0x14	; 20
     58a:	0e 94 ab 00 	call	0x156	; 0x156 <buffer_init>
     58e:	29 83       	std	Y+1, r18	; 0x01
     590:	3a 83       	std	Y+2, r19	; 0x02
     592:	4b 83       	std	Y+3, r20	; 0x03
     594:	5c 83       	std	Y+4, r21	; 0x04
     596:	6d 83       	std	Y+5, r22	; 0x05
     598:	7e 83       	std	Y+6, r23	; 0x06
     59a:	8f 83       	std	Y+7, r24	; 0x07
     59c:	98 87       	std	Y+8, r25	; 0x08
     59e:	ab ed       	ldi	r26, 0xDB	; 219
     5a0:	b1 e0       	ldi	r27, 0x01	; 1
     5a2:	fe 01       	movw	r30, r28
     5a4:	31 96       	adiw	r30, 0x01	; 1
     5a6:	88 e0       	ldi	r24, 0x08	; 8
     5a8:	01 90       	ld	r0, Z+
     5aa:	0d 92       	st	X+, r0
     5ac:	81 50       	subi	r24, 0x01	; 1
     5ae:	e1 f7       	brne	.-8      	; 0x5a8 <measure_init+0x4c>
	
	return true; 
}
     5b0:	81 e0       	ldi	r24, 0x01	; 1
     5b2:	28 96       	adiw	r28, 0x08	; 8
     5b4:	0f b6       	in	r0, 0x3f	; 63
     5b6:	f8 94       	cli
     5b8:	de bf       	out	0x3e, r29	; 62
     5ba:	0f be       	out	0x3f, r0	; 63
     5bc:	cd bf       	out	0x3d, r28	; 61
     5be:	df 91       	pop	r29
     5c0:	cf 91       	pop	r28
     5c2:	08 95       	ret

000005c4 <filter>:
/**
 * Filter the data using a template and try to identify obstacles 
 * NOTE: This function is called as soon as a full cycle with the Servo is performed.
 *
 */
void filter(void) {
     5c4:	af 92       	push	r10
     5c6:	bf 92       	push	r11
     5c8:	cf 92       	push	r12
     5ca:	df 92       	push	r13
     5cc:	ef 92       	push	r14
     5ce:	ff 92       	push	r15
     5d0:	0f 93       	push	r16
     5d2:	1f 93       	push	r17
     5d4:	cf 93       	push	r28
     5d6:	df 93       	push	r29
     5d8:	00 d0       	rcall	.+0      	; 0x5da <filter+0x16>
     5da:	00 d0       	rcall	.+0      	; 0x5dc <filter+0x18>
     5dc:	0f 92       	push	r0
     5de:	cd b7       	in	r28, 0x3d	; 61
     5e0:	de b7       	in	r29, 0x3e	; 62
	
	//port_led_blink(2); 
	
	//Template for the matching process 
	int8_t template[5] = {0,-1,0,1,0};
     5e2:	de 01       	movw	r26, r28
     5e4:	11 96       	adiw	r26, 0x01	; 1
     5e6:	e0 e0       	ldi	r30, 0x00	; 0
     5e8:	f1 e0       	ldi	r31, 0x01	; 1
     5ea:	85 e0       	ldi	r24, 0x05	; 5
     5ec:	01 90       	ld	r0, Z+
     5ee:	0d 92       	st	X+, r0
     5f0:	81 50       	subi	r24, 0x01	; 1
     5f2:	e1 f7       	brne	.-8      	; 0x5ec <filter+0x28>
		
	
	//Correlate the measurement data with the template and rate obstacles 
	//TODO change this in the way such that only measured headings are taken into account => state.min_index, state.max_index	
	//Check what happens, at discontinuity 0->360°
	for(uint16_t ind=template_midInd; ind <= (360/INTERVAL)-(template_midInd+1); ind++) {
     5f4:	02 e0       	ldi	r16, 0x02	; 2
     5f6:	10 e0       	ldi	r17, 0x00	; 0
/**
 * Filter the data using a template and try to identify obstacles 
 * NOTE: This function is called as soon as a full cycle with the Servo is performed.
 *
 */
void filter(void) {
     5f8:	0f 2e       	mov	r0, r31
     5fa:	f5 e0       	ldi	r31, 0x05	; 5
     5fc:	ef 2e       	mov	r14, r31
     5fe:	ff 24       	eor	r15, r15
     600:	f0 2d       	mov	r31, r0
     602:	ec 0e       	add	r14, r28
     604:	fd 1e       	adc	r15, r29
     606:	cc 24       	eor	r12, r12
     608:	dd 24       	eor	r13, r13
		//Find local maximum
		if(sum1 > config.threshold) {
			//We found an obstacle => store it in the dynamic buffer 
		
			//Add data to the buffer 	
			buffer_add(&obst_buffer,ind*INTERVAL,dist_mat[ind]);
     60a:	0f 2e       	mov	r0, r31
     60c:	fb ed       	ldi	r31, 0xDB	; 219
     60e:	af 2e       	mov	r10, r31
     610:	f1 e0       	ldi	r31, 0x01	; 1
     612:	bf 2e       	mov	r11, r31
     614:	f0 2d       	mov	r31, r0
     616:	1d c0       	rjmp	.+58     	; 0x652 <filter+0x8e>
	for(uint16_t ind=template_midInd; ind <= (360/INTERVAL)-(template_midInd+1); ind++) {
	
		int16_t sum1 = 0;

		for (int8_t t_ind=(-template_midInd); t_ind < template_midInd; t_ind++) {
			sum1 = sum1 + template[t_ind+template_midInd]*dist_mat[t_ind+ind];
     618:	41 91       	ld	r20, Z+
     61a:	5d 91       	ld	r21, X+
     61c:	45 03       	mulsu	r20, r21
     61e:	c0 01       	movw	r24, r0
     620:	11 24       	eor	r1, r1
     622:	28 0f       	add	r18, r24
     624:	39 1f       	adc	r19, r25
	//Check what happens, at discontinuity 0->360°
	for(uint16_t ind=template_midInd; ind <= (360/INTERVAL)-(template_midInd+1); ind++) {
	
		int16_t sum1 = 0;

		for (int8_t t_ind=(-template_midInd); t_ind < template_midInd; t_ind++) {
     626:	ee 15       	cp	r30, r14
     628:	ff 05       	cpc	r31, r15
     62a:	b1 f7       	brne	.-20     	; 0x618 <filter+0x54>
	
		//serial_send_byte(((int8_t)(sum1>>8))); 
		//serial_send_byte(((int8_t)(sum1))); 
	
		//Find local maximum
		if(sum1 > config.threshold) {
     62c:	25 31       	cpi	r18, 0x15	; 21
     62e:	31 05       	cpc	r19, r1
     630:	5c f0       	brlt	.+22     	; 0x648 <filter+0x84>
			//We found an obstacle => store it in the dynamic buffer 
		
			//Add data to the buffer 	
			buffer_add(&obst_buffer,ind*INTERVAL,dist_mat[ind]);
     632:	b8 01       	movw	r22, r16
     634:	66 0f       	add	r22, r22
     636:	77 1f       	adc	r23, r23
/**
 * Filter the data using a template and try to identify obstacles 
 * NOTE: This function is called as soon as a full cycle with the Servo is performed.
 *
 */
void filter(void) {
     638:	f8 01       	movw	r30, r16
     63a:	e3 5e       	subi	r30, 0xE3	; 227
     63c:	fe 4f       	sbci	r31, 0xFE	; 254
		//Find local maximum
		if(sum1 > config.threshold) {
			//We found an obstacle => store it in the dynamic buffer 
		
			//Add data to the buffer 	
			buffer_add(&obst_buffer,ind*INTERVAL,dist_mat[ind]);
     63e:	40 81       	ld	r20, Z
     640:	c5 01       	movw	r24, r10
     642:	50 e0       	ldi	r21, 0x00	; 0
     644:	0e 94 e5 00 	call	0x1ca	; 0x1ca <buffer_add>
		
	
	//Correlate the measurement data with the template and rate obstacles 
	//TODO change this in the way such that only measured headings are taken into account => state.min_index, state.max_index	
	//Check what happens, at discontinuity 0->360°
	for(uint16_t ind=template_midInd; ind <= (360/INTERVAL)-(template_midInd+1); ind++) {
     648:	0f 5f       	subi	r16, 0xFF	; 255
     64a:	1f 4f       	sbci	r17, 0xFF	; 255
     64c:	02 3b       	cpi	r16, 0xB2	; 178
     64e:	11 05       	cpc	r17, r1
     650:	39 f0       	breq	.+14     	; 0x660 <filter+0x9c>
     652:	fe 01       	movw	r30, r28
     654:	31 96       	adiw	r30, 0x01	; 1
/**
 * Filter the data using a template and try to identify obstacles 
 * NOTE: This function is called as soon as a full cycle with the Servo is performed.
 *
 */
void filter(void) {
     656:	d8 01       	movw	r26, r16
     658:	a5 5e       	subi	r26, 0xE5	; 229
     65a:	be 4f       	sbci	r27, 0xFE	; 254
     65c:	96 01       	movw	r18, r12
     65e:	dc cf       	rjmp	.-72     	; 0x618 <filter+0x54>
	
	}
	
	
	//The filtering is finished => we can delete the data 
	for(uint16_t ind = state.min_tn_angle_ind; ind <= state.max_tn_angle_ind; ind++) {
     660:	80 91 0e 01 	lds	r24, 0x010E
     664:	90 91 0f 01 	lds	r25, 0x010F
     668:	20 91 0c 01 	lds	r18, 0x010C
     66c:	30 91 0d 01 	lds	r19, 0x010D
     670:	28 17       	cp	r18, r24
     672:	39 07       	cpc	r19, r25
     674:	40 f0       	brcs	.+16     	; 0x686 <filter+0xc2>
/**
 * Filter the data using a template and try to identify obstacles 
 * NOTE: This function is called as soon as a full cycle with the Servo is performed.
 *
 */
void filter(void) {
     676:	fc 01       	movw	r30, r24
     678:	e3 5e       	subi	r30, 0xE3	; 227
     67a:	fe 4f       	sbci	r31, 0xFE	; 254
	
	
	//The filtering is finished => we can delete the data 
	for(uint16_t ind = state.min_tn_angle_ind; ind <= state.max_tn_angle_ind; ind++) {
		
		dist_mat[ind] = 0; 
     67c:	11 92       	st	Z+, r1
	
	}
	
	
	//The filtering is finished => we can delete the data 
	for(uint16_t ind = state.min_tn_angle_ind; ind <= state.max_tn_angle_ind; ind++) {
     67e:	01 96       	adiw	r24, 0x01	; 1
     680:	28 17       	cp	r18, r24
     682:	39 07       	cpc	r19, r25
     684:	d8 f7       	brcc	.-10     	; 0x67c <filter+0xb8>
		
		dist_mat[ind] = 0; 
	}
	
	state.max_tn_angle_ind = 0x0000; 
     686:	10 92 0d 01 	sts	0x010D, r1
     68a:	10 92 0c 01 	sts	0x010C, r1
	state.min_tn_angle_ind = 0xFFFF; 
     68e:	8f ef       	ldi	r24, 0xFF	; 255
     690:	9f ef       	ldi	r25, 0xFF	; 255
     692:	90 93 0f 01 	sts	0x010F, r25
     696:	80 93 0e 01 	sts	0x010E, r24
	
	
}
     69a:	0f 90       	pop	r0
     69c:	0f 90       	pop	r0
     69e:	0f 90       	pop	r0
     6a0:	0f 90       	pop	r0
     6a2:	0f 90       	pop	r0
     6a4:	df 91       	pop	r29
     6a6:	cf 91       	pop	r28
     6a8:	1f 91       	pop	r17
     6aa:	0f 91       	pop	r16
     6ac:	ff 90       	pop	r15
     6ae:	ef 90       	pop	r14
     6b0:	df 90       	pop	r13
     6b2:	cf 90       	pop	r12
     6b4:	bf 90       	pop	r11
     6b6:	af 90       	pop	r10
     6b8:	08 95       	ret

000006ba <measure_get_obstacles>:
 * 
 * @param angle: Pointer to the angle, where the obstacle is detected (wrt. true North) [°]
 * @param dist:  Pointer to the distance to the obstacle [cm]
 * @return true, if there are any more obstacles left, false otherwise
 */
bool measure_get_obstacles(uint16_t *angle, uint16_t *dist) {
     6ba:	cf 93       	push	r28
     6bc:	df 93       	push	r29
     6be:	9c 01       	movw	r18, r24
     6c0:	ab 01       	movw	r20, r22
	
	//Get the Obstacle-Object from the Buffer
	buffer_get_values(&obst_buffer, angle, dist); 
     6c2:	cb ed       	ldi	r28, 0xDB	; 219
     6c4:	d1 e0       	ldi	r29, 0x01	; 1
     6c6:	ce 01       	movw	r24, r28
     6c8:	b9 01       	movw	r22, r18
     6ca:	0e 94 24 01 	call	0x248	; 0x248 <buffer_get_values>
	
	//Return true as soon as the buffer is empty 
	return !buffer_is_empty(&obst_buffer); 
     6ce:	ce 01       	movw	r24, r28
     6d0:	0e 94 45 01 	call	0x28a	; 0x28a <buffer_is_empty>
}
     6d4:	91 e0       	ldi	r25, 0x01	; 1
     6d6:	89 27       	eor	r24, r25
     6d8:	df 91       	pop	r29
     6da:	cf 91       	pop	r28
     6dc:	08 95       	ret

000006de <mod>:
 * <360: 360-angle
 */
uint16_t mod(int16_t angle) {


		while(angle>360) {
     6de:	21 e0       	ldi	r18, 0x01	; 1
     6e0:	89 36       	cpi	r24, 0x69	; 105
     6e2:	92 07       	cpc	r25, r18
     6e4:	34 f0       	brlt	.+12     	; 0x6f2 <mod+0x14>
			angle = angle -  360;
     6e6:	88 56       	subi	r24, 0x68	; 104
     6e8:	91 40       	sbci	r25, 0x01	; 1
 * <360: 360-angle
 */
uint16_t mod(int16_t angle) {


		while(angle>360) {
     6ea:	21 e0       	ldi	r18, 0x01	; 1
     6ec:	89 36       	cpi	r24, 0x69	; 105
     6ee:	92 07       	cpc	r25, r18
     6f0:	d4 f7       	brge	.-12     	; 0x6e6 <mod+0x8>
			angle = angle -  360;
		}

		while(angle<(-360)) {
     6f2:	2e ef       	ldi	r18, 0xFE	; 254
     6f4:	88 39       	cpi	r24, 0x98	; 152
     6f6:	92 07       	cpc	r25, r18
     6f8:	34 f4       	brge	.+12     	; 0x706 <mod+0x28>
			angle = angle + 360;
     6fa:	88 59       	subi	r24, 0x98	; 152
     6fc:	9e 4f       	sbci	r25, 0xFE	; 254

		while(angle>360) {
			angle = angle -  360;
		}

		while(angle<(-360)) {
     6fe:	2e ef       	ldi	r18, 0xFE	; 254
     700:	88 39       	cpi	r24, 0x98	; 152
     702:	92 07       	cpc	r25, r18
     704:	d4 f3       	brlt	.-12     	; 0x6fa <mod+0x1c>
			angle = angle + 360;
		}

		while(angle<0) {
     706:	99 23       	and	r25, r25
     708:	1c f4       	brge	.+6      	; 0x710 <mod+0x32>
			angle = 360 + angle;
     70a:	88 59       	subi	r24, 0x98	; 152
     70c:	9e 4f       	sbci	r25, 0xFE	; 254

		while(angle<(-360)) {
			angle = angle + 360;
		}

		while(angle<0) {
     70e:	ea f3       	brmi	.-6      	; 0x70a <mod+0x2c>
			angle = 360 + angle;
		}

		return angle;
}	
     710:	08 95       	ret

00000712 <push2matrix>:
/**
 * Push the value into the distance measurement matrix 
 * 
 * 
 */
void push2matrix(uint16_t dist) {
     712:	ef 92       	push	r14
     714:	ff 92       	push	r15
     716:	1f 93       	push	r17
     718:	cf 93       	push	r28
     71a:	df 93       	push	r29
     71c:	18 2f       	mov	r17, r24
	
	//CALCULATE ANGLE WRT TRUE NORTH 
	uint16_t curr_course = pixhawk_get_heading(); 
     71e:	0e 94 81 04 	call	0x902	; 0x902 <pixhawk_get_heading>
     722:	7c 01       	movw	r14, r24
	uint16_t angle_tn = state.angle;
     724:	c0 91 05 01 	lds	r28, 0x0105
     728:	d0 91 06 01 	lds	r29, 0x0106
	int16_t alpha = 0; 
	if(state.angle > RANGE) {
     72c:	cb 35       	cpi	r28, 0x5B	; 91
     72e:	d1 05       	cpc	r29, r1
     730:	38 f0       	brcs	.+14     	; 0x740 <push2matrix+0x2e>
		//This is minus => to the backboard side of the boat
	
		alpha = state.angle - RANGE;
     732:	8c 1b       	sub	r24, r28
     734:	9d 0b       	sbc	r25, r29
	
		angle_tn = mod(curr_course - alpha);
     736:	86 5a       	subi	r24, 0xA6	; 166
     738:	9f 4f       	sbci	r25, 0xFF	; 255
     73a:	0e 94 6f 03 	call	0x6de	; 0x6de <mod>
     73e:	01 c0       	rjmp	.+2      	; 0x742 <push2matrix+0x30>
 */
void push2matrix(uint16_t dist) {
	
	//CALCULATE ANGLE WRT TRUE NORTH 
	uint16_t curr_course = pixhawk_get_heading(); 
	uint16_t angle_tn = state.angle;
     740:	ce 01       	movw	r24, r28
		alpha = state.angle - RANGE;
	
		angle_tn = mod(curr_course - alpha);
	}	

	if(state.angle < RANGE) {
     742:	ca 35       	cpi	r28, 0x5A	; 90
     744:	d1 05       	cpc	r29, r1
     746:	38 f4       	brcc	.+14     	; 0x756 <push2matrix+0x44>
		//This is plus => to the starboard side of the boat
	
		alpha = RANGE-state.angle;
     748:	c7 01       	movw	r24, r14
     74a:	8c 1b       	sub	r24, r28
     74c:	9d 0b       	sbc	r25, r29
	
		angle_tn = mod(curr_course + alpha);
     74e:	86 5a       	subi	r24, 0xA6	; 166
     750:	9f 4f       	sbci	r25, 0xFF	; 255
     752:	0e 94 6f 03 	call	0x6de	; 0x6de <mod>
	}

	if(state.angle == RANGE) {
     756:	ca 35       	cpi	r28, 0x5A	; 90
     758:	d1 05       	cpc	r29, r1
     75a:	09 f4       	brne	.+2      	; 0x75e <push2matrix+0x4c>
		//The obstacle lays direct in front of us
	
		angle_tn = curr_course;
     75c:	c7 01       	movw	r24, r14
	}
	
	
	//PUSH THE VALUE INTO THE DISTANCE MATRIX 
	uint16_t index = angle_tn/INTERVAL;		//Index in Distance Matrix 
     75e:	96 95       	lsr	r25
     760:	87 95       	ror	r24
	
	dist_mat[index] = dist;					//Store value in Matrix		
     762:	fc 01       	movw	r30, r24
     764:	e3 5e       	subi	r30, 0xE3	; 227
     766:	fe 4f       	sbci	r31, 0xFE	; 254
     768:	10 83       	st	Z, r17
	
	
	//UPDATE MIN AND MAX INDEX VALUES 
	//This way, the search for obstacles in the correlation matrix can be reduced to the 
	//effectively written region. 
	if(index > state.max_tn_angle_ind) {
     76a:	20 91 0c 01 	lds	r18, 0x010C
     76e:	30 91 0d 01 	lds	r19, 0x010D
     772:	28 17       	cp	r18, r24
     774:	39 07       	cpc	r19, r25
     776:	20 f4       	brcc	.+8      	; 0x780 <push2matrix+0x6e>
		state.max_tn_angle_ind = index; 
     778:	90 93 0d 01 	sts	0x010D, r25
     77c:	80 93 0c 01 	sts	0x010C, r24
	}		
	
	if(index < state.min_tn_angle_ind) {
     780:	20 91 0e 01 	lds	r18, 0x010E
     784:	30 91 0f 01 	lds	r19, 0x010F
     788:	82 17       	cp	r24, r18
     78a:	93 07       	cpc	r25, r19
     78c:	20 f4       	brcc	.+8      	; 0x796 <push2matrix+0x84>
		state.min_tn_angle_ind = index; 
     78e:	90 93 0f 01 	sts	0x010F, r25
     792:	80 93 0e 01 	sts	0x010E, r24
	}
}	
     796:	df 91       	pop	r29
     798:	cf 91       	pop	r28
     79a:	1f 91       	pop	r17
     79c:	ff 90       	pop	r15
     79e:	ef 90       	pop	r14
     7a0:	08 95       	ret

000007a2 <measure_handler>:
	_delay_ms(500); 
	*/

	
	//Check if we already finished one round 
	if(state.angle>=2*RANGE) {
     7a2:	80 91 05 01 	lds	r24, 0x0105
     7a6:	90 91 06 01 	lds	r25, 0x0106
     7aa:	84 3b       	cpi	r24, 0xB4	; 180
     7ac:	91 05       	cpc	r25, r1
     7ae:	58 f0       	brcs	.+22     	; 0x7c6 <measure_handler+0x24>
		//We are at the end => on backbord-side 
		
		state.angle = 2*RANGE; 
     7b0:	84 eb       	ldi	r24, 0xB4	; 180
     7b2:	90 e0       	ldi	r25, 0x00	; 0
     7b4:	90 93 06 01 	sts	0x0106, r25
     7b8:	80 93 05 01 	sts	0x0105, r24
		state.direction = -1; 
     7bc:	8f ef       	ldi	r24, 0xFF	; 255
     7be:	80 93 07 01 	sts	0x0107, r24
		
		filter();		//Filter the data and find the obstacles 
     7c2:	0e 94 e2 02 	call	0x5c4	; 0x5c4 <filter>
	}
	
	if(state.angle<=0) {
     7c6:	80 91 05 01 	lds	r24, 0x0105
     7ca:	90 91 06 01 	lds	r25, 0x0106
     7ce:	00 97       	sbiw	r24, 0x00	; 0
     7d0:	29 f4       	brne	.+10     	; 0x7dc <measure_handler+0x3a>
		//We are at the end => on starboard-side
		
		state.angle = 0; 
		state.direction = 1; 
     7d2:	81 e0       	ldi	r24, 0x01	; 1
     7d4:	80 93 07 01 	sts	0x0107, r24
		
		filter();		//Filter the data and find the obstacles 
     7d8:	0e 94 e2 02 	call	0x5c4	; 0x5c4 <filter>
	}
	
	
	//MOVE THE SERVO TO THE NEW ANGLE 
	servo_set(state.angle); 
     7dc:	60 91 05 01 	lds	r22, 0x0105
     7e0:	70 91 06 01 	lds	r23, 0x0106
     7e4:	80 e0       	ldi	r24, 0x00	; 0
     7e6:	90 e0       	ldi	r25, 0x00	; 0
     7e8:	0e 94 39 07 	call	0xe72	; 0xe72 <__floatunsisf>
     7ec:	0e 94 3e 06 	call	0xc7c	; 0xc7c <servo_set>
	//_delay_ms(100); 
	
	//DO THE MEASUREMENT  
	uint16_t dist = lidar_measure();
     7f0:	0e 94 73 02 	call	0x4e6	; 0x4e6 <lidar_measure>
	
	//TELL THE VALUE TO THE FILTER-UNIT
	push2matrix(dist); 
     7f4:	0e 94 89 03 	call	0x712	; 0x712 <push2matrix>
	
	//Increase the Angle 
	state.angle += (state.direction * INTERVAL); 	
     7f8:	80 91 07 01 	lds	r24, 0x0107
     7fc:	99 27       	eor	r25, r25
     7fe:	87 fd       	sbrc	r24, 7
     800:	90 95       	com	r25
     802:	88 0f       	add	r24, r24
     804:	99 1f       	adc	r25, r25
     806:	20 91 05 01 	lds	r18, 0x0105
     80a:	30 91 06 01 	lds	r19, 0x0106
     80e:	82 0f       	add	r24, r18
     810:	93 1f       	adc	r25, r19
     812:	90 93 06 01 	sts	0x0106, r25
     816:	80 93 05 01 	sts	0x0105, r24
	
}
     81a:	08 95       	ret

0000081c <pixhawk_init>:
 * @return true, if initialization was successful 
 */
bool pixhawk_init(void) {
	
	//Set the state of the parser
	rx_state = IDLE; 
     81c:	10 92 d1 01 	sts	0x01D1, r1
	
	
	//Init the serial communication 
	//serial_init(38400);	//for use with PIXHAWK
	serial_init(19200); 
     820:	80 e0       	ldi	r24, 0x00	; 0
     822:	9b e4       	ldi	r25, 0x4B	; 75
     824:	0e 94 78 05 	call	0xaf0	; 0xaf0 <serial_init>
	
	return true; 
}
     828:	81 e0       	ldi	r24, 0x01	; 1
     82a:	08 95       	ret

0000082c <pixhawk_parse>:
 * Parsing new data that is available from the serial interface 
 * Note: This function is called by the "Receive completed interrupt"
 *
 * @param Pointer to a circular buffer 
 */
bool pixhawk_parse(uint8_t data) {
     82c:	cf 93       	push	r28
     82e:	c8 2f       	mov	r28, r24
	//Text starts with STX = 0x02 and ends with ETX = 0x03
	//A message from the Pixhawk must have the following form: 
	// 0x02 | 0x02 | 0xXX (Command byte) | 0x03 
	
	//Turn on LED to signal Data transfer 
	port_led(true); 
     830:	81 e0       	ldi	r24, 0x01	; 1
     832:	90 e0       	ldi	r25, 0x00	; 0
     834:	0e 94 52 05 	call	0xaa4	; 0xaa4 <port_led>
	
	switch(rx_state) {
     838:	80 91 d1 01 	lds	r24, 0x01D1
     83c:	82 30       	cpi	r24, 0x02	; 2
     83e:	01 f1       	breq	.+64     	; 0x880 <pixhawk_parse+0x54>
     840:	83 30       	cpi	r24, 0x03	; 3
     842:	30 f4       	brcc	.+12     	; 0x850 <pixhawk_parse+0x24>
     844:	88 23       	and	r24, r24
     846:	61 f0       	breq	.+24     	; 0x860 <pixhawk_parse+0x34>
     848:	81 30       	cpi	r24, 0x01	; 1
     84a:	09 f0       	breq	.+2      	; 0x84e <pixhawk_parse+0x22>
     84c:	51 c0       	rjmp	.+162    	; 0x8f0 <pixhawk_parse+0xc4>
     84e:	0f c0       	rjmp	.+30     	; 0x86e <pixhawk_parse+0x42>
     850:	84 30       	cpi	r24, 0x04	; 4
     852:	49 f1       	breq	.+82     	; 0x8a6 <pixhawk_parse+0x7a>
     854:	84 30       	cpi	r24, 0x04	; 4
     856:	08 f1       	brcs	.+66     	; 0x89a <pixhawk_parse+0x6e>
     858:	85 30       	cpi	r24, 0x05	; 5
     85a:	09 f0       	breq	.+2      	; 0x85e <pixhawk_parse+0x32>
     85c:	49 c0       	rjmp	.+146    	; 0x8f0 <pixhawk_parse+0xc4>
     85e:	29 c0       	rjmp	.+82     	; 0x8b2 <pixhawk_parse+0x86>
		case IDLE: {
			//The state machine is idle and waits for chars to be sent 
			
			if(data == MSG_START) {
     860:	c2 30       	cpi	r28, 0x02	; 2
     862:	09 f0       	breq	.+2      	; 0x866 <pixhawk_parse+0x3a>
     864:	47 c0       	rjmp	.+142    	; 0x8f4 <pixhawk_parse+0xc8>
				//We received the first Start-Character
				
				rx_state = STARTCHAR; 			 
     866:	81 e0       	ldi	r24, 0x01	; 1
     868:	80 93 d1 01 	sts	0x01D1, r24
     86c:	43 c0       	rjmp	.+134    	; 0x8f4 <pixhawk_parse+0xc8>
			break; 
		}
		case STARTCHAR: {
			//The first Start-Character was sent and we are waiting for the second one now 
			
			if(data == MSG_START) {
     86e:	c2 30       	cpi	r28, 0x02	; 2
     870:	21 f4       	brne	.+8      	; 0x87a <pixhawk_parse+0x4e>
				//We received the second Start-Character
				
				rx_state = COMMAND;
     872:	82 e0       	ldi	r24, 0x02	; 2
     874:	80 93 d1 01 	sts	0x01D1, r24
     878:	3d c0       	rjmp	.+122    	; 0x8f4 <pixhawk_parse+0xc8>
				 
			} else {
				//No second Start-Character was sent => return to IDLE
				
				rx_state = IDLE; 
     87a:	10 92 d1 01 	sts	0x01D1, r1
     87e:	3a c0       	rjmp	.+116    	; 0x8f4 <pixhawk_parse+0xc8>
			break;		
		}
		case COMMAND: {
			//The second Start-Character was sent, now we expect to receive the Command 
			
			if(data == MSG_START || data == MSG_END) {
     880:	8c 2f       	mov	r24, r28
     882:	82 50       	subi	r24, 0x02	; 2
     884:	82 30       	cpi	r24, 0x02	; 2
     886:	18 f4       	brcc	.+6      	; 0x88e <pixhawk_parse+0x62>
				//We received again a Start or End Character or a 0 => ERROR 
				//return to IDLE
				
				rx_state = IDLE; 
     888:	10 92 d1 01 	sts	0x01D1, r1
     88c:	33 c0       	rjmp	.+102    	; 0x8f4 <pixhawk_parse+0xc8>
			} else {
				//The char is valid => store it 
				
				cmd = data; 
     88e:	c0 93 d2 01 	sts	0x01D2, r28
				
				rx_state = HEAD0; 
     892:	83 e0       	ldi	r24, 0x03	; 3
     894:	80 93 d1 01 	sts	0x01D1, r24
     898:	2d c0       	rjmp	.+90     	; 0x8f4 <pixhawk_parse+0xc8>
		case HEAD0: {
			//The command was sent => expect to receive the "heading0" char 
			//NOTE: We do not check, if we received a start or an End-Char, because it could happen that the heading contains one of these characters 

			//The char is valid => store it
			head0 = data; 
     89a:	c0 93 d3 01 	sts	0x01D3, r28
			rx_state = HEAD1;
     89e:	84 e0       	ldi	r24, 0x04	; 4
     8a0:	80 93 d1 01 	sts	0x01D1, r24
			
			break; 
     8a4:	27 c0       	rjmp	.+78     	; 0x8f4 <pixhawk_parse+0xc8>
		case HEAD1: {
			//The first heading byte was receives => expect to receive the second one 
			//NOTE: We do not check, if we received a start or an End-Char, because it could happen that the heading contains one of these characters 
			
			//The char is valid => store it
			head1 = data;
     8a6:	c0 93 d4 01 	sts	0x01D4, r28
			rx_state = ENDCHAR;
     8aa:	85 e0       	ldi	r24, 0x05	; 5
     8ac:	80 93 d1 01 	sts	0x01D1, r24
						
			break; 
     8b0:	21 c0       	rjmp	.+66     	; 0x8f4 <pixhawk_parse+0xc8>
		}
		case ENDCHAR: {
			//The command byte was read and we wait for the end-byte 
			
			if(data == MSG_END) {
     8b2:	c3 30       	cpi	r28, 0x03	; 3
     8b4:	d1 f4       	brne	.+52     	; 0x8ea <pixhawk_parse+0xbe>
				//We received the End Character => Data is valid 
				
				flag_send = true; 
     8b6:	81 e0       	ldi	r24, 0x01	; 1
     8b8:	80 93 d5 01 	sts	0x01D5, r24
				
				//Store the heading transmitted with the request
				state.heading = (uint16_t)(head0<<8) || (uint16_t)(head1);
     8bc:	90 91 d3 01 	lds	r25, 0x01D3
     8c0:	80 e0       	ldi	r24, 0x00	; 0
     8c2:	00 97       	sbiw	r24, 0x00	; 0
     8c4:	49 f4       	brne	.+18     	; 0x8d8 <pixhawk_parse+0xac>
     8c6:	81 e0       	ldi	r24, 0x01	; 1
     8c8:	90 e0       	ldi	r25, 0x00	; 0
     8ca:	20 91 d4 01 	lds	r18, 0x01D4
     8ce:	22 23       	and	r18, r18
     8d0:	29 f4       	brne	.+10     	; 0x8dc <pixhawk_parse+0xb0>
     8d2:	80 e0       	ldi	r24, 0x00	; 0
     8d4:	90 e0       	ldi	r25, 0x00	; 0
     8d6:	02 c0       	rjmp	.+4      	; 0x8dc <pixhawk_parse+0xb0>
     8d8:	81 e0       	ldi	r24, 0x01	; 1
     8da:	90 e0       	ldi	r25, 0x00	; 0
     8dc:	90 93 d8 01 	sts	0x01D8, r25
     8e0:	80 93 d7 01 	sts	0x01D7, r24
				
				rx_state = IDLE; 
     8e4:	10 92 d1 01 	sts	0x01D1, r1
     8e8:	05 c0       	rjmp	.+10     	; 0x8f4 <pixhawk_parse+0xc8>
			
			} else {
				//Some error occurred => return to IDLE
		 				
				rx_state = IDLE;
     8ea:	10 92 d1 01 	sts	0x01D1, r1
     8ee:	02 c0       	rjmp	.+4      	; 0x8f4 <pixhawk_parse+0xc8>
		}
		default: {
			//This code should never be reached
			//Nothing we can do about, if we reach it...just go back to IDLE
			
			rx_state = IDLE; 
     8f0:	10 92 d1 01 	sts	0x01D1, r1
			break; 
		}
	}
	
	//Unlit LED
	port_led(false); 
     8f4:	80 e0       	ldi	r24, 0x00	; 0
     8f6:	90 e0       	ldi	r25, 0x00	; 0
     8f8:	0e 94 52 05 	call	0xaa4	; 0xaa4 <port_led>
	
	
	return true; 
}
     8fc:	81 e0       	ldi	r24, 0x01	; 1
     8fe:	cf 91       	pop	r28
     900:	08 95       	ret

00000902 <pixhawk_get_heading>:
 * Get the last known Heading of the boat
 *
 */
uint16_t pixhawk_get_heading(void) {
	return state.heading; 
}
     902:	80 91 d7 01 	lds	r24, 0x01D7
     906:	90 91 d8 01 	lds	r25, 0x01D8
     90a:	08 95       	ret

0000090c <send2pixhawk>:
/**
 * Send data to Pixhawk 
 *
 * @param 
 */
bool send2pixhawk(uint8_t cmd) {
     90c:	0f 93       	push	r16
     90e:	1f 93       	push	r17
     910:	cf 93       	push	r28
     912:	df 93       	push	r29
     914:	00 d0       	rcall	.+0      	; 0x916 <send2pixhawk+0xa>
     916:	00 d0       	rcall	.+0      	; 0x918 <send2pixhawk+0xc>
     918:	cd b7       	in	r28, 0x3d	; 61
     91a:	de b7       	in	r29, 0x3e	; 62
     91c:	08 2f       	mov	r16, r24
	
	//First handle all Commands that do not need to send data back 
	switch(cmd) {
     91e:	80 32       	cpi	r24, 0x20	; 32
     920:	21 f4       	brne	.+8      	; 0x92a <send2pixhawk+0x1e>
		case CMD_RESET: {
			//Reset the Sensor to initial conditions 
			
			measure_init(); 
     922:	0e 94 ae 02 	call	0x55c	; 0x55c <measure_init>
			return true;  
     926:	81 e0       	ldi	r24, 0x01	; 1
     928:	61 c0       	rjmp	.+194    	; 0x9ec <send2pixhawk+0xe0>
	
	
	
	
	//Send start-sequence => Initialize Message 
	serial_send_byte(MSG_START);
     92a:	82 e0       	ldi	r24, 0x02	; 2
     92c:	0e 94 a9 05 	call	0xb52	; 0xb52 <serial_send_byte>
	serial_send_byte(MSG_START);
     930:	82 e0       	ldi	r24, 0x02	; 2
     932:	0e 94 a9 05 	call	0xb52	; 0xb52 <serial_send_byte>
	
	//Send Command number 
	serial_send_byte(cmd); 
     936:	80 2f       	mov	r24, r16
     938:	0e 94 a9 05 	call	0xb52	; 0xb52 <serial_send_byte>
	
	//Send individual data 
	switch(cmd) {
     93c:	0e 34       	cpi	r16, 0x4E	; 78
     93e:	e9 f1       	breq	.+122    	; 0x9ba <send2pixhawk+0xae>
     940:	0f 34       	cpi	r16, 0x4F	; 79
     942:	21 f0       	breq	.+8      	; 0x94c <send2pixhawk+0x40>
     944:	0a 34       	cpi	r16, 0x4A	; 74
     946:	09 f0       	breq	.+2      	; 0x94a <send2pixhawk+0x3e>
     948:	50 c0       	rjmp	.+160    	; 0x9ea <send2pixhawk+0xde>
     94a:	3f c0       	rjmp	.+126    	; 0x9ca <send2pixhawk+0xbe>
		case CMD_OBSTACLES: {
			
			//Send the number of bytes 
			serial_send_byte(buffer_get_size(&obst_buffer)*4); 
     94c:	8b ed       	ldi	r24, 0xDB	; 219
     94e:	91 e0       	ldi	r25, 0x01	; 1
     950:	0e 94 4c 01 	call	0x298	; 0x298 <buffer_get_size>
     954:	88 0f       	add	r24, r24
     956:	88 0f       	add	r24, r24
     958:	0e 94 a9 05 	call	0xb52	; 0xb52 <serial_send_byte>
			//Size is: 2 Values for each obstacle, 2 Bytes for each value => 2x2=4
			
			
			while(!buffer_is_empty(&obst_buffer)) {
     95c:	0b ed       	ldi	r16, 0xDB	; 219
     95e:	11 e0       	ldi	r17, 0x01	; 1
     960:	19 c0       	rjmp	.+50     	; 0x994 <send2pixhawk+0x88>
				//As long as there are values in the buffer send the data 
				
				uint16_t heading = 0; 
     962:	1c 82       	std	Y+4, r1	; 0x04
     964:	1b 82       	std	Y+3, r1	; 0x03
				uint16_t distance = 0;
     966:	1a 82       	std	Y+2, r1	; 0x02
     968:	19 82       	std	Y+1, r1	; 0x01
				
				buffer_get_values(&obst_buffer, &heading, &distance);  
     96a:	c8 01       	movw	r24, r16
     96c:	be 01       	movw	r22, r28
     96e:	6d 5f       	subi	r22, 0xFD	; 253
     970:	7f 4f       	sbci	r23, 0xFF	; 255
     972:	ae 01       	movw	r20, r28
     974:	4f 5f       	subi	r20, 0xFF	; 255
     976:	5f 4f       	sbci	r21, 0xFF	; 255
     978:	0e 94 24 01 	call	0x248	; 0x248 <buffer_get_values>
				
				serial_send_byte((uint8_t)(heading>>8));  //High byte of bearing
     97c:	8c 81       	ldd	r24, Y+4	; 0x04
     97e:	0e 94 a9 05 	call	0xb52	; 0xb52 <serial_send_byte>
				serial_send_byte((uint8_t)(heading));		 //Low byte of bearing
     982:	8b 81       	ldd	r24, Y+3	; 0x03
     984:	0e 94 a9 05 	call	0xb52	; 0xb52 <serial_send_byte>
				serial_send_byte((uint8_t)(distance>>8)); //High byte of distance
     988:	8a 81       	ldd	r24, Y+2	; 0x02
     98a:	0e 94 a9 05 	call	0xb52	; 0xb52 <serial_send_byte>
				serial_send_byte((uint8_t)(distance));		 //Low byte of distance
     98e:	89 81       	ldd	r24, Y+1	; 0x01
     990:	0e 94 a9 05 	call	0xb52	; 0xb52 <serial_send_byte>
			//Send the number of bytes 
			serial_send_byte(buffer_get_size(&obst_buffer)*4); 
			//Size is: 2 Values for each obstacle, 2 Bytes for each value => 2x2=4
			
			
			while(!buffer_is_empty(&obst_buffer)) {
     994:	c8 01       	movw	r24, r16
     996:	0e 94 45 01 	call	0x28a	; 0x28a <buffer_is_empty>
     99a:	88 23       	and	r24, r24
     99c:	11 f3       	breq	.-60     	; 0x962 <send2pixhawk+0x56>
				serial_send_byte((uint8_t)(distance>>8)); //High byte of distance
				serial_send_byte((uint8_t)(distance));		 //Low byte of distance
			}
			
			//Send number of bytes that will be transmitted 
			serial_send_byte(state.numofobstacles*2);	
     99e:	80 91 d6 01 	lds	r24, 0x01D6
     9a2:	88 0f       	add	r24, r24
     9a4:	0e 94 a9 05 	call	0xb52	; 0xb52 <serial_send_byte>
			
			//Send the data for the obstacles 
			uint8_t i; 
			for(i = 0; i<state.numofobstacles; i++) {
     9a8:	90 91 d6 01 	lds	r25, 0x01D6
     9ac:	99 23       	and	r25, r25
     9ae:	c9 f0       	breq	.+50     	; 0x9e2 <send2pixhawk+0xd6>
     9b0:	80 e0       	ldi	r24, 0x00	; 0
     9b2:	8f 5f       	subi	r24, 0xFF	; 255
     9b4:	89 17       	cp	r24, r25
     9b6:	e9 f7       	brne	.-6      	; 0x9b2 <send2pixhawk+0xa6>
     9b8:	14 c0       	rjmp	.+40     	; 0x9e2 <send2pixhawk+0xd6>
			break; 
		}
		case CMD_NUMOBSTACLES: {
			
			//Send the number of bytes that will be transmitted
			serial_send_byte(0x01); 
     9ba:	81 e0       	ldi	r24, 0x01	; 1
     9bc:	0e 94 a9 05 	call	0xb52	; 0xb52 <serial_send_byte>
			
			//Send the number of Obstacles 
			serial_send_byte(state.numofobstacles);
     9c0:	80 91 d6 01 	lds	r24, 0x01D6
     9c4:	0e 94 a9 05 	call	0xb52	; 0xb52 <serial_send_byte>
			
			break; 
     9c8:	0c c0       	rjmp	.+24     	; 0x9e2 <send2pixhawk+0xd6>
		}
		case CMD_LASTDIST: {
			//Return the last measured distance by the LIDAR in two bytes (high-byte first) 
			
			//Send the number of bytes that will be transmitted 
			serial_send_byte(0x02); 
     9ca:	82 e0       	ldi	r24, 0x02	; 2
     9cc:	0e 94 a9 05 	call	0xb52	; 0xb52 <serial_send_byte>
			
			//Get the distance from the LIDAR
			uint16_t dist = lidar_get_distance();
     9d0:	0e 94 07 02 	call	0x40e	; 0x40e <lidar_get_distance>
     9d4:	08 2f       	mov	r16, r24
			
			//Send the distance as high and low byte to the Pixhawk 
			serial_send_byte((uint8_t)(dist>>8)); 
     9d6:	89 2f       	mov	r24, r25
     9d8:	0e 94 a9 05 	call	0xb52	; 0xb52 <serial_send_byte>
			serial_send_byte((uint8_t)(dist)); 
     9dc:	80 2f       	mov	r24, r16
     9de:	0e 94 a9 05 	call	0xb52	; 0xb52 <serial_send_byte>
			return false; 
		}
	}
	
	//Send end of Message 
	serial_send_byte(MSG_END);
     9e2:	83 e0       	ldi	r24, 0x03	; 3
     9e4:	0e 94 a9 05 	call	0xb52	; 0xb52 <serial_send_byte>
     9e8:	01 c0       	rjmp	.+2      	; 0x9ec <send2pixhawk+0xe0>
		default: {
			//An invalid command was sent => might flag unhappy...
			
			//port_led_blink(2); 
			
			return false; 
     9ea:	80 e0       	ldi	r24, 0x00	; 0
	}
	
	//Send end of Message 
	serial_send_byte(MSG_END);
	
}
     9ec:	0f 90       	pop	r0
     9ee:	0f 90       	pop	r0
     9f0:	0f 90       	pop	r0
     9f2:	0f 90       	pop	r0
     9f4:	df 91       	pop	r29
     9f6:	cf 91       	pop	r28
     9f8:	1f 91       	pop	r17
     9fa:	0f 91       	pop	r16
     9fc:	08 95       	ret

000009fe <pixhawk_handler>:
 * Note: This function should be called in every program loop 
 * 
 */
void pixhawk_handler(void) {

	if(flag_send) {
     9fe:	80 91 d5 01 	lds	r24, 0x01D5
     a02:	88 23       	and	r24, r24
     a04:	51 f0       	breq	.+20     	; 0xa1a <pixhawk_handler+0x1c>
		//Data needs to be sent 
		//port_led_blink(2);
		
		//serial_send_byte(cmd); 
		send2pixhawk(cmd); 
     a06:	80 91 d2 01 	lds	r24, 0x01D2
     a0a:	0e 94 86 04 	call	0x90c	; 0x90c <send2pixhawk>
		
		cmd = 0x00;
     a0e:	10 92 d2 01 	sts	0x01D2, r1
		flag_send = false;  
     a12:	10 92 d5 01 	sts	0x01D5, r1
		
		#if DEBUG_MATLAB == 1
		//Do the next measurement step
		measure_handler();  
     a16:	0e 94 d1 03 	call	0x7a2	; 0x7a2 <measure_handler>
     a1a:	08 95       	ret

00000a1c <main>:
#include "pixhawk.h"
#include "measure.h"

#include <util/delay.h>

int main(void) {
     a1c:	cf 93       	push	r28
     a1e:	df 93       	push	r29
     a20:	00 d0       	rcall	.+0      	; 0xa22 <main+0x6>
     a22:	0f 92       	push	r0
     a24:	cd b7       	in	r28, 0x3d	; 61
     a26:	de b7       	in	r29, 0x3e	; 62
	/************************************************************************/
	
	bool boot_state = true;		//true, if everything is fine during the boot process 
	
	//Disable any Interrupts 
	cli(); 
     a28:	f8 94       	cli
	
	
	//Init the input/output ports 
	boot_state = boot_state && port_init(); 
     a2a:	0e 94 49 05 	call	0xa92	; 0xa92 <port_init>
	
	//Init the use of a Servo
	boot_state = boot_state && servo_init(); 
     a2e:	88 23       	and	r24, r24
     a30:	69 f1       	breq	.+90     	; 0xa8c <main+0x70>
     a32:	0e 94 08 06 	call	0xc10	; 0xc10 <servo_init>
     a36:	88 23       	and	r24, r24
     a38:	49 f1       	breq	.+82     	; 0xa8c <main+0x70>
	
	//Init the use of the LIDAR 
	boot_state = boot_state && lidar_init();     //DEBUG: Remove true, this is only, because no lidar is present by now 
     a3a:	0e 94 26 02 	call	0x44c	; 0x44c <lidar_init>
     a3e:	88 23       	and	r24, r24
     a40:	29 f1       	breq	.+74     	; 0xa8c <main+0x70>
	
	//Init the use of the Pixhawk 
	boot_state = boot_state && pixhawk_init();					//DEBUG: add this init ot the bool boot_state
     a42:	0e 94 0e 04 	call	0x81c	; 0x81c <pixhawk_init>
     a46:	88 23       	and	r24, r24
     a48:	09 f1       	breq	.+66     	; 0xa8c <main+0x70>
	
	//Init the measurement 
	boot_state = boot_state && measure_init(); 
     a4a:	0e 94 ae 02 	call	0x55c	; 0x55c <measure_init>
     a4e:	88 23       	and	r24, r24
     a50:	19 f0       	breq	.+6      	; 0xa58 <main+0x3c>
     a52:	01 e0       	ldi	r16, 0x01	; 1
     a54:	10 e0       	ldi	r17, 0x00	; 0
     a56:	02 c0       	rjmp	.+4      	; 0xa5c <main+0x40>
     a58:	00 e0       	ldi	r16, 0x00	; 0
     a5a:	10 e0       	ldi	r17, 0x00	; 0
	
	//Allow for Interrupts (e.g. for serial communication) 
	sei(); 
     a5c:	78 94       	sei
	
	
	
	
	//Write a message to the serial interface, that the boot-process was successful
	char str[] = {"OK"}; 
     a5e:	de 01       	movw	r26, r28
     a60:	11 96       	adiw	r26, 0x01	; 1
     a62:	e0 e1       	ldi	r30, 0x10	; 16
     a64:	f1 e0       	ldi	r31, 0x01	; 1
     a66:	83 e0       	ldi	r24, 0x03	; 3
     a68:	01 90       	ld	r0, Z+
     a6a:	0d 92       	st	X+, r0
     a6c:	81 50       	subi	r24, 0x01	; 1
     a6e:	e1 f7       	brne	.-8      	; 0xa68 <main+0x4c>
	serial_send_string(str); 
     a70:	ce 01       	movw	r24, r28
     a72:	01 96       	adiw	r24, 0x01	; 1
     a74:	0e 94 b1 05 	call	0xb62	; 0xb62 <serial_send_string>
	/************************************************************************/
	/* MAIN WHILE LOOP                                                      */
	/************************************************************************/
    while(1) {
		
		if(boot_state) {
     a78:	01 15       	cp	r16, r1
     a7a:	11 05       	cpc	r17, r1
     a7c:	19 f0       	breq	.+6      	; 0xa84 <main+0x68>
		
			//***SEND DATA TO PIXHAWK 
			//The Pixhawk requests for data by sending commands. These commands are processed in the 
			//Interrupt routine of the UART. 
			//The answer to a request is sent when we have time in the pixhawk_handler(). 
			pixhawk_handler(); 
     a7e:	0e 94 ff 04 	call	0x9fe	; 0x9fe <pixhawk_handler>
     a82:	fa cf       	rjmp	.-12     	; 0xa78 <main+0x5c>
			//serial_send_string(buffer);
		
		} else {
			//Something went wrong during the boot-process => signal this state with a LED being constantly on
			
			port_led(true); 
     a84:	81 e0       	ldi	r24, 0x01	; 1
     a86:	0e 94 52 05 	call	0xaa4	; 0xaa4 <port_led>
     a8a:	f6 cf       	rjmp	.-20     	; 0xa78 <main+0x5c>
	
	//Init the use of the Pixhawk 
	boot_state = boot_state && pixhawk_init();					//DEBUG: add this init ot the bool boot_state
	
	//Init the measurement 
	boot_state = boot_state && measure_init(); 
     a8c:	00 e0       	ldi	r16, 0x00	; 0
     a8e:	10 e0       	ldi	r17, 0x00	; 0
     a90:	e5 cf       	rjmp	.-54     	; 0xa5c <main+0x40>

00000a92 <port_init>:
 *
 */
bool port_init(void) {
	
	//Set data direction (Output/Input) 
	DDRB = 0xff;	//All ports are outputs
     a92:	8f ef       	ldi	r24, 0xFF	; 255
     a94:	84 b9       	out	0x04, r24	; 4
	DDRC = 0xff;    //All ports are outputs
     a96:	87 b9       	out	0x07, r24	; 7
	DDRD = 0xff;    //All ports are outputs 
     a98:	8a b9       	out	0x0a, r24	; 10
	
	//Set all Ports to logic zero (<=> OFF) 
	PORTB = 0x00; 
     a9a:	15 b8       	out	0x05, r1	; 5
	PORTC = 0x00; 
     a9c:	18 b8       	out	0x08, r1	; 8
	PORTD = 0x00; 
     a9e:	1b b8       	out	0x0b, r1	; 11
	
	return true; 
} 
     aa0:	81 e0       	ldi	r24, 0x01	; 1
     aa2:	08 95       	ret

00000aa4 <port_led>:
 * Control the LED connected to PORT PB0
 *
 * @param state, true, iff the LED must be turned on, false else  
 */
void port_led(bool state) {
	if(state) {
     aa4:	88 23       	and	r24, r24
     aa6:	11 f0       	breq	.+4      	; 0xaac <port_led+0x8>
		PORTB |= (1<<PB0); 
     aa8:	28 9a       	sbi	0x05, 0	; 5
     aaa:	08 95       	ret
	} else {
		PORTB &= ~(1<<PB0); 
     aac:	28 98       	cbi	0x05, 0	; 5
     aae:	08 95       	ret

00000ab0 <port_led_blink>:
	}
}

void port_led_blink(uint8_t times) {
     ab0:	cf 93       	push	r28
     ab2:	c8 2f       	mov	r28, r24
	while(times>0) {
     ab4:	88 23       	and	r24, r24
     ab6:	d1 f0       	breq	.+52     	; 0xaec <port_led_blink+0x3c>
		port_led(true); 
     ab8:	81 e0       	ldi	r24, 0x01	; 1
     aba:	0e 94 52 05 	call	0xaa4	; 0xaa4 <port_led>
     abe:	8f ef       	ldi	r24, 0xFF	; 255
     ac0:	92 e5       	ldi	r25, 0x52	; 82
     ac2:	a7 e0       	ldi	r26, 0x07	; 7
     ac4:	81 50       	subi	r24, 0x01	; 1
     ac6:	90 40       	sbci	r25, 0x00	; 0
     ac8:	a0 40       	sbci	r26, 0x00	; 0
     aca:	e1 f7       	brne	.-8      	; 0xac4 <port_led_blink+0x14>
     acc:	00 c0       	rjmp	.+0      	; 0xace <port_led_blink+0x1e>
     ace:	00 00       	nop
		_delay_ms(300); 
		port_led(false);
     ad0:	80 e0       	ldi	r24, 0x00	; 0
     ad2:	0e 94 52 05 	call	0xaa4	; 0xaa4 <port_led>
     ad6:	8f ef       	ldi	r24, 0xFF	; 255
     ad8:	91 ee       	ldi	r25, 0xE1	; 225
     ada:	a4 e0       	ldi	r26, 0x04	; 4
     adc:	81 50       	subi	r24, 0x01	; 1
     ade:	90 40       	sbci	r25, 0x00	; 0
     ae0:	a0 40       	sbci	r26, 0x00	; 0
     ae2:	e1 f7       	brne	.-8      	; 0xadc <port_led_blink+0x2c>
     ae4:	00 c0       	rjmp	.+0      	; 0xae6 <port_led_blink+0x36>
     ae6:	00 00       	nop
		_delay_ms(200);
		
		times -= 1; 
     ae8:	c1 50       	subi	r28, 0x01	; 1
		PORTB &= ~(1<<PB0); 
	}
}

void port_led_blink(uint8_t times) {
	while(times>0) {
     aea:	31 f7       	brne	.-52     	; 0xab8 <port_led_blink+0x8>
		port_led(false);
		_delay_ms(200);
		
		times -= 1; 
	}
     aec:	cf 91       	pop	r28
     aee:	08 95       	ret

00000af0 <serial_init>:
 */
bool serial_init(unsigned int baud) {
	
	//Use "Asynchronous double speed mode U2X0 = 1) 
	//UCSR0A |= (1<<U2X0); double speed mode 
	UCSR0A &= ~(1<<U2X0); //normal speed mode 
     af0:	e0 ec       	ldi	r30, 0xC0	; 192
     af2:	f0 e0       	ldi	r31, 0x00	; 0
     af4:	20 81       	ld	r18, Z
     af6:	2d 7f       	andi	r18, 0xFD	; 253
     af8:	20 83       	st	Z, r18
	

	//Calculate the baudrate
	unsigned int ubrr = (double)(F_CPU/16/baud-1);  //Note change 16 to 8 for double speed mode 
     afa:	9c 01       	movw	r18, r24
     afc:	40 e0       	ldi	r20, 0x00	; 0
     afe:	50 e0       	ldi	r21, 0x00	; 0
     b00:	60 e2       	ldi	r22, 0x20	; 32
     b02:	71 ea       	ldi	r23, 0xA1	; 161
     b04:	87 e0       	ldi	r24, 0x07	; 7
     b06:	90 e0       	ldi	r25, 0x00	; 0
     b08:	0e 94 4a 08 	call	0x1094	; 0x1094 <__divmodsi4>
     b0c:	ca 01       	movw	r24, r20
     b0e:	b9 01       	movw	r22, r18
     b10:	61 50       	subi	r22, 0x01	; 1
     b12:	70 40       	sbci	r23, 0x00	; 0
     b14:	80 40       	sbci	r24, 0x00	; 0
     b16:	90 40       	sbci	r25, 0x00	; 0
     b18:	0e 94 3b 07 	call	0xe76	; 0xe76 <__floatsisf>
     b1c:	0e 94 0d 07 	call	0xe1a	; 0xe1a <__fixunssfsi>
	
	//Set baudrate 
	UBRR0H = (unsigned char)(ubrr>>8); 
     b20:	70 93 c5 00 	sts	0x00C5, r23
	UBRR0L = (unsigned char)ubrr; 
     b24:	60 93 c4 00 	sts	0x00C4, r22
	
	//Enable receiver and transmitter
	UCSR0B = (1<<RXEN0)|(1<<TXEN0); 
     b28:	e1 ec       	ldi	r30, 0xC1	; 193
     b2a:	f0 e0       	ldi	r31, 0x00	; 0
     b2c:	88 e1       	ldi	r24, 0x18	; 24
     b2e:	80 83       	st	Z, r24
	
	//Set frame format: 8data, 2stop bit 
	UCSR0C = (1<<USBS0)|(3<<UCSZ00); 
     b30:	8e e0       	ldi	r24, 0x0E	; 14
     b32:	80 93 c2 00 	sts	0x00C2, r24
	
	//Allow receive interrupts 
	UCSR0B |= (1<<RXCIE0); 
     b36:	80 81       	ld	r24, Z
     b38:	80 68       	ori	r24, 0x80	; 128
     b3a:	80 83       	st	Z, r24
     b3c:	8f ef       	ldi	r24, 0xFF	; 255
     b3e:	99 e6       	ldi	r25, 0x69	; 105
     b40:	a8 e1       	ldi	r26, 0x18	; 24
     b42:	81 50       	subi	r24, 0x01	; 1
     b44:	90 40       	sbci	r25, 0x00	; 0
     b46:	a0 40       	sbci	r26, 0x00	; 0
     b48:	e1 f7       	brne	.-8      	; 0xb42 <serial_init+0x52>
     b4a:	00 c0       	rjmp	.+0      	; 0xb4c <serial_init+0x5c>
     b4c:	00 00       	nop
	//Wait a moment to Set registers 
	_delay_ms(1000); 
	
	//Everything is OK => return true
	return true; 
}
     b4e:	81 e0       	ldi	r24, 0x01	; 1
     b50:	08 95       	ret

00000b52 <serial_send_byte>:
 * @param data: byte to be sent 
 */
void serial_send_byte(uint8_t data) {
	
	//Wait for empty transmit buffer 
	while (!(UCSR0A & (1<<UDRE0))); 
     b52:	e0 ec       	ldi	r30, 0xC0	; 192
     b54:	f0 e0       	ldi	r31, 0x00	; 0
     b56:	90 81       	ld	r25, Z
     b58:	95 ff       	sbrs	r25, 5
     b5a:	fd cf       	rjmp	.-6      	; 0xb56 <serial_send_byte+0x4>
	
	//Put data into the buffer and send it 
	UDR0 = data; 
     b5c:	80 93 c6 00 	sts	0x00C6, r24
}
     b60:	08 95       	ret

00000b62 <serial_send_string>:

void serial_send_string(char buf[]) {
     b62:	0f 93       	push	r16
     b64:	1f 93       	push	r17
     b66:	cf 93       	push	r28
     b68:	8c 01       	movw	r16, r24
	uint8_t ind; 
	ind = 0; 
	
	//char buf[] = {"Jonas"}; 
	
	while(buf[ind] != 0x00) {
     b6a:	fc 01       	movw	r30, r24
     b6c:	80 81       	ld	r24, Z
     b6e:	88 23       	and	r24, r24
     b70:	51 f0       	breq	.+20     	; 0xb86 <serial_send_string+0x24>
}

void serial_send_string(char buf[]) {
	
	uint8_t ind; 
	ind = 0; 
     b72:	c0 e0       	ldi	r28, 0x00	; 0
	
	//char buf[] = {"Jonas"}; 
	
	while(buf[ind] != 0x00) {
		serial_send_byte(buf[ind]); 
     b74:	0e 94 a9 05 	call	0xb52	; 0xb52 <serial_send_byte>
		ind=ind+1;
     b78:	cf 5f       	subi	r28, 0xFF	; 255
	uint8_t ind; 
	ind = 0; 
	
	//char buf[] = {"Jonas"}; 
	
	while(buf[ind] != 0x00) {
     b7a:	f8 01       	movw	r30, r16
     b7c:	ec 0f       	add	r30, r28
     b7e:	f1 1d       	adc	r31, r1
     b80:	80 81       	ld	r24, Z
     b82:	88 23       	and	r24, r24
     b84:	b9 f7       	brne	.-18     	; 0xb74 <serial_send_string+0x12>
		serial_send_byte(buf[ind]); 
		ind=ind+1;
	}
	  
	serial_send_byte('\n'); 
     b86:	8a e0       	ldi	r24, 0x0A	; 10
     b88:	0e 94 a9 05 	call	0xb52	; 0xb52 <serial_send_byte>
	serial_send_byte(0x0D);	//Send new line 
     b8c:	8d e0       	ldi	r24, 0x0D	; 13
     b8e:	0e 94 a9 05 	call	0xb52	; 0xb52 <serial_send_byte>
	
}
     b92:	cf 91       	pop	r28
     b94:	1f 91       	pop	r17
     b96:	0f 91       	pop	r16
     b98:	08 95       	ret

00000b9a <serial_receive_byte>:
 * @return received data byte 
 */
uint8_t serial_receive_byte(void) {
	
	//Wait for data to be reveived 
	while(!(UCSR0A & (1<<RXEN0))); 
     b9a:	e0 ec       	ldi	r30, 0xC0	; 192
     b9c:	f0 e0       	ldi	r31, 0x00	; 0
     b9e:	80 81       	ld	r24, Z
     ba0:	84 ff       	sbrs	r24, 4
     ba2:	fd cf       	rjmp	.-6      	; 0xb9e <serial_receive_byte+0x4>
	
	//Get and return the received data from the buffer 
	return UDR0; 
     ba4:	80 91 c6 00 	lds	r24, 0x00C6
}
     ba8:	08 95       	ret

00000baa <__vector_18>:

/** 
 * Interrupt for complete reception. 
 * This interrupt occurs, as soon as a character was successfully read. 
 */
ISR(USART_RX_vect) {
     baa:	1f 92       	push	r1
     bac:	0f 92       	push	r0
     bae:	0f b6       	in	r0, 0x3f	; 63
     bb0:	0f 92       	push	r0
     bb2:	11 24       	eor	r1, r1
     bb4:	2f 93       	push	r18
     bb6:	3f 93       	push	r19
     bb8:	4f 93       	push	r20
     bba:	5f 93       	push	r21
     bbc:	6f 93       	push	r22
     bbe:	7f 93       	push	r23
     bc0:	8f 93       	push	r24
     bc2:	9f 93       	push	r25
     bc4:	af 93       	push	r26
     bc6:	bf 93       	push	r27
     bc8:	ef 93       	push	r30
     bca:	ff 93       	push	r31
	
	//Store data locally 
	uint8_t data = UDR0; 
     bcc:	80 91 c6 00 	lds	r24, 0x00C6
	
	//Notify the Pixhawk-Module that new data is available 
	pixhawk_parse(data);
     bd0:	0e 94 16 04 	call	0x82c	; 0x82c <pixhawk_parse>
	
}
     bd4:	ff 91       	pop	r31
     bd6:	ef 91       	pop	r30
     bd8:	bf 91       	pop	r27
     bda:	af 91       	pop	r26
     bdc:	9f 91       	pop	r25
     bde:	8f 91       	pop	r24
     be0:	7f 91       	pop	r23
     be2:	6f 91       	pop	r22
     be4:	5f 91       	pop	r21
     be6:	4f 91       	pop	r20
     be8:	3f 91       	pop	r19
     bea:	2f 91       	pop	r18
     bec:	0f 90       	pop	r0
     bee:	0f be       	out	0x3f, r0	; 63
     bf0:	0f 90       	pop	r0
     bf2:	1f 90       	pop	r1
     bf4:	18 95       	reti

00000bf6 <flush>:
 */ 
void flush(void) {
	uint8_t dummy;
	
	//Read the buffer until it is empty  
	while(UCSR0A & (1<<RXEN0)) {
     bf6:	80 91 c0 00 	lds	r24, 0x00C0
     bfa:	84 ff       	sbrs	r24, 4
     bfc:	08 c0       	rjmp	.+16     	; 0xc0e <flush+0x18>
		dummy = UDR0; 
     bfe:	a6 ec       	ldi	r26, 0xC6	; 198
     c00:	b0 e0       	ldi	r27, 0x00	; 0
 */ 
void flush(void) {
	uint8_t dummy;
	
	//Read the buffer until it is empty  
	while(UCSR0A & (1<<RXEN0)) {
     c02:	e0 ec       	ldi	r30, 0xC0	; 192
     c04:	f0 e0       	ldi	r31, 0x00	; 0
		dummy = UDR0; 
     c06:	8c 91       	ld	r24, X
 */ 
void flush(void) {
	uint8_t dummy;
	
	//Read the buffer until it is empty  
	while(UCSR0A & (1<<RXEN0)) {
     c08:	80 81       	ld	r24, Z
     c0a:	84 fd       	sbrc	r24, 4
     c0c:	fc cf       	rjmp	.-8      	; 0xc06 <flush+0x10>
     c0e:	08 95       	ret

00000c10 <servo_init>:
/** 
 * Initialize the use of a Servo 	
 */
bool servo_init(void) {
	
	DDRD |= 0xFF;		//Set DDRD as output 
     c10:	8a b1       	in	r24, 0x0a	; 10
     c12:	8f ef       	ldi	r24, 0xFF	; 255
     c14:	8a b9       	out	0x0a, r24	; 10
	TCCR1A |= (1<<WGM11) | (1<<COM1A1);	//Set mode 
     c16:	e0 e8       	ldi	r30, 0x80	; 128
     c18:	f0 e0       	ldi	r31, 0x00	; 0
     c1a:	80 81       	ld	r24, Z
     c1c:	82 68       	ori	r24, 0x82	; 130
     c1e:	80 83       	st	Z, r24
	
	//Set Wave-Form of PWM 	
	TCCR1B |= 1<<WGM13 | 1<<WGM12 | 1<<CS10;
     c20:	e1 e8       	ldi	r30, 0x81	; 129
     c22:	f0 e0       	ldi	r31, 0x00	; 0
     c24:	80 81       	ld	r24, Z
     c26:	89 61       	ori	r24, 0x19	; 25
     c28:	80 83       	st	Z, r24
	
	TCCR1B |= (1<<CS11);	//Use Prescalor of 8 => FCPU/8
     c2a:	80 81       	ld	r24, Z
     c2c:	82 60       	ori	r24, 0x02	; 2
     c2e:	80 83       	st	Z, r24
	TCCR1B &= ~(1<<CS10); 
     c30:	80 81       	ld	r24, Z
     c32:	8e 7f       	andi	r24, 0xFE	; 254
     c34:	80 83       	st	Z, r24
	TCCR1B &= ~(1<<CS12); 
     c36:	80 81       	ld	r24, Z
     c38:	8b 7f       	andi	r24, 0xFB	; 251
     c3a:	80 83       	st	Z, r24
	
	//Set maximum Timer-Count 
	// ICR1 = F_CPU/(Servo acceptable Value in Hz); 
	ICR1 = 19999; 
     c3c:	e6 e8       	ldi	r30, 0x86	; 134
     c3e:	f0 e0       	ldi	r31, 0x00	; 0
     c40:	8f e1       	ldi	r24, 0x1F	; 31
     c42:	9e e4       	ldi	r25, 0x4E	; 78
     c44:	91 83       	std	Z+1, r25	; 0x01
     c46:	80 83       	st	Z, r24
	//OCR1A = ICR1 - (maxPWM-minPWM)/2 + minPWM; 
	//OCR1A = ICR1 - minPWM; 
	//servo_set(180);
	
	//OCR1A = ICR1 - middlePWM;  
	OCR1A = ICR1 - minPWM; 
     c48:	80 81       	ld	r24, Z
     c4a:	91 81       	ldd	r25, Z+1	; 0x01
     c4c:	8f 53       	subi	r24, 0x3F	; 63
     c4e:	92 40       	sbci	r25, 0x02	; 2
     c50:	90 93 89 00 	sts	0x0089, r25
     c54:	80 93 88 00 	sts	0x0088, r24
	_delay_ms(1000);
	OCR1A = ICR1 - maxPWM; */
	
	
	return true; 
}
     c58:	81 e0       	ldi	r24, 0x01	; 1
     c5a:	08 95       	ret

00000c5c <wait>:




void wait(uint16_t time) {
	for(uint16_t i=0; i<time; i++) {
     c5c:	00 97       	sbiw	r24, 0x00	; 0
     c5e:	69 f0       	breq	.+26     	; 0xc7a <wait+0x1e>
     c60:	20 e0       	ldi	r18, 0x00	; 0
     c62:	30 e0       	ldi	r19, 0x00	; 0
     c64:	e9 ef       	ldi	r30, 0xF9	; 249
     c66:	f0 e0       	ldi	r31, 0x00	; 0
     c68:	31 97       	sbiw	r30, 0x01	; 1
     c6a:	f1 f7       	brne	.-4      	; 0xc68 <wait+0xc>
     c6c:	00 c0       	rjmp	.+0      	; 0xc6e <wait+0x12>
     c6e:	00 00       	nop
     c70:	2f 5f       	subi	r18, 0xFF	; 255
     c72:	3f 4f       	sbci	r19, 0xFF	; 255
     c74:	28 17       	cp	r18, r24
     c76:	39 07       	cpc	r19, r25
     c78:	a9 f7       	brne	.-22     	; 0xc64 <wait+0x8>
     c7a:	08 95       	ret

00000c7c <servo_set>:
/**
 * Set the Servo to a given angle
 * 
 * @param deg: angle in degrees the servo should move to 
 */
void servo_set(float deg) {
     c7c:	cf 92       	push	r12
     c7e:	df 92       	push	r13
     c80:	ef 92       	push	r14
     c82:	ff 92       	push	r15
     c84:	0f 93       	push	r16
     c86:	1f 93       	push	r17
     c88:	cf 93       	push	r28
     c8a:	df 93       	push	r29
     c8c:	6b 01       	movw	r12, r22
     c8e:	7c 01       	movw	r14, r24
    
	//Calculate the PWM Signal 
	uint16_t pwm = ((maxPWM-minPWM)/ServoRange*deg + minPWM);
     c90:	20 e0       	ldi	r18, 0x00	; 0
     c92:	30 e0       	ldi	r19, 0x00	; 0
     c94:	40 e1       	ldi	r20, 0x10	; 16
     c96:	51 e4       	ldi	r21, 0x41	; 65
     c98:	0e 94 c7 07 	call	0xf8e	; 0xf8e <__mulsf3>
     c9c:	20 e0       	ldi	r18, 0x00	; 0
     c9e:	30 ec       	ldi	r19, 0xC0	; 192
     ca0:	4f e0       	ldi	r20, 0x0F	; 15
     ca2:	54 e4       	ldi	r21, 0x44	; 68
     ca4:	0e 94 a4 06 	call	0xd48	; 0xd48 <__addsf3>
     ca8:	0e 94 0d 07 	call	0xe1a	; 0xe1a <__fixunssfsi>
     cac:	8b 01       	movw	r16, r22
     cae:	9c 01       	movw	r18, r24
	
	//Time for moving to this position 
	int16_t ang_diff = state.angle-deg; 
     cb0:	60 91 d9 01 	lds	r22, 0x01D9
     cb4:	70 91 da 01 	lds	r23, 0x01DA
     cb8:	80 e0       	ldi	r24, 0x00	; 0
     cba:	90 e0       	ldi	r25, 0x00	; 0
     cbc:	0e 94 39 07 	call	0xe72	; 0xe72 <__floatunsisf>
     cc0:	a7 01       	movw	r20, r14
     cc2:	96 01       	movw	r18, r12
     cc4:	0e 94 a3 06 	call	0xd46	; 0xd46 <__subsf3>
     cc8:	0e 94 08 07 	call	0xe10	; 0xe10 <__fixsfsi>
	if(ang_diff < 0) {
		ang_diff = -ang_diff; 
	}
	uint16_t time = ang_diff/ServoSpeed;	
     ccc:	86 2f       	mov	r24, r22
     cce:	97 2f       	mov	r25, r23
     cd0:	99 23       	and	r25, r25
     cd2:	1c f4       	brge	.+6      	; 0xcda <servo_set+0x5e>
     cd4:	90 95       	com	r25
     cd6:	81 95       	neg	r24
     cd8:	9f 4f       	sbci	r25, 0xFF	; 255
     cda:	9c 01       	movw	r18, r24
     cdc:	99 23       	and	r25, r25
     cde:	14 f4       	brge	.+4      	; 0xce4 <servo_set+0x68>
     ce0:	2f 5f       	subi	r18, 0xFF	; 255
     ce2:	3f 4f       	sbci	r19, 0xFF	; 255
     ce4:	35 95       	asr	r19
     ce6:	27 95       	ror	r18
     ce8:	d2 2f       	mov	r29, r18
     cea:	c3 2f       	mov	r28, r19
	
	//Store the angle locally
	state.angle = deg;
     cec:	c7 01       	movw	r24, r14
     cee:	b6 01       	movw	r22, r12
     cf0:	0e 94 0d 07 	call	0xe1a	; 0xe1a <__fixunssfsi>
     cf4:	dc 01       	movw	r26, r24
     cf6:	cb 01       	movw	r24, r22
     cf8:	90 93 da 01 	sts	0x01DA, r25
     cfc:	80 93 d9 01 	sts	0x01D9, r24
	
	//Saturate PWM output
	if(pwm<minPWM) {
     d00:	22 e0       	ldi	r18, 0x02	; 2
     d02:	0f 33       	cpi	r16, 0x3F	; 63
     d04:	12 07       	cpc	r17, r18
     d06:	10 f4       	brcc	.+4      	; 0xd0c <servo_set+0x90>
		pwm = minPWM; 
     d08:	0f e3       	ldi	r16, 0x3F	; 63
     d0a:	12 e0       	ldi	r17, 0x02	; 2
	
	if(pwm>maxPWM) {
		pwm = maxPWM;
	}
	
	OCR1A = ICR1 - pwm; 
     d0c:	80 91 86 00 	lds	r24, 0x0086
     d10:	90 91 87 00 	lds	r25, 0x0087
     d14:	29 e0       	ldi	r18, 0x09	; 9
     d16:	07 34       	cpi	r16, 0x47	; 71
     d18:	12 07       	cpc	r17, r18
     d1a:	10 f0       	brcs	.+4      	; 0xd20 <servo_set+0xa4>
     d1c:	06 e4       	ldi	r16, 0x46	; 70
     d1e:	19 e0       	ldi	r17, 0x09	; 9
     d20:	80 1b       	sub	r24, r16
     d22:	91 0b       	sbc	r25, r17
     d24:	90 93 89 00 	sts	0x0089, r25
     d28:	80 93 88 00 	sts	0x0088, r24
	
	//Wait for the servo to reach the new position 
	wait(time); 
     d2c:	8d 2f       	mov	r24, r29
     d2e:	9c 2f       	mov	r25, r28
     d30:	0e 94 2e 06 	call	0xc5c	; 0xc5c <wait>
	
	//OCR1A = ICR1 - deg; 
}
     d34:	df 91       	pop	r29
     d36:	cf 91       	pop	r28
     d38:	1f 91       	pop	r17
     d3a:	0f 91       	pop	r16
     d3c:	ff 90       	pop	r15
     d3e:	ef 90       	pop	r14
     d40:	df 90       	pop	r13
     d42:	cf 90       	pop	r12
     d44:	08 95       	ret

00000d46 <__subsf3>:
     d46:	50 58       	subi	r21, 0x80	; 128

00000d48 <__addsf3>:
     d48:	bb 27       	eor	r27, r27
     d4a:	aa 27       	eor	r26, r26
     d4c:	0e d0       	rcall	.+28     	; 0xd6a <__addsf3x>
     d4e:	e5 c0       	rjmp	.+458    	; 0xf1a <__fp_round>
     d50:	d6 d0       	rcall	.+428    	; 0xefe <__fp_pscA>
     d52:	30 f0       	brcs	.+12     	; 0xd60 <__addsf3+0x18>
     d54:	db d0       	rcall	.+438    	; 0xf0c <__fp_pscB>
     d56:	20 f0       	brcs	.+8      	; 0xd60 <__addsf3+0x18>
     d58:	31 f4       	brne	.+12     	; 0xd66 <__addsf3+0x1e>
     d5a:	9f 3f       	cpi	r25, 0xFF	; 255
     d5c:	11 f4       	brne	.+4      	; 0xd62 <__addsf3+0x1a>
     d5e:	1e f4       	brtc	.+6      	; 0xd66 <__addsf3+0x1e>
     d60:	cb c0       	rjmp	.+406    	; 0xef8 <__fp_nan>
     d62:	0e f4       	brtc	.+2      	; 0xd66 <__addsf3+0x1e>
     d64:	e0 95       	com	r30
     d66:	e7 fb       	bst	r30, 7
     d68:	c1 c0       	rjmp	.+386    	; 0xeec <__fp_inf>

00000d6a <__addsf3x>:
     d6a:	e9 2f       	mov	r30, r25
     d6c:	e7 d0       	rcall	.+462    	; 0xf3c <__fp_split3>
     d6e:	80 f3       	brcs	.-32     	; 0xd50 <__addsf3+0x8>
     d70:	ba 17       	cp	r27, r26
     d72:	62 07       	cpc	r22, r18
     d74:	73 07       	cpc	r23, r19
     d76:	84 07       	cpc	r24, r20
     d78:	95 07       	cpc	r25, r21
     d7a:	18 f0       	brcs	.+6      	; 0xd82 <__addsf3x+0x18>
     d7c:	71 f4       	brne	.+28     	; 0xd9a <__addsf3x+0x30>
     d7e:	9e f5       	brtc	.+102    	; 0xde6 <__addsf3x+0x7c>
     d80:	ff c0       	rjmp	.+510    	; 0xf80 <__fp_zero>
     d82:	0e f4       	brtc	.+2      	; 0xd86 <__addsf3x+0x1c>
     d84:	e0 95       	com	r30
     d86:	0b 2e       	mov	r0, r27
     d88:	ba 2f       	mov	r27, r26
     d8a:	a0 2d       	mov	r26, r0
     d8c:	0b 01       	movw	r0, r22
     d8e:	b9 01       	movw	r22, r18
     d90:	90 01       	movw	r18, r0
     d92:	0c 01       	movw	r0, r24
     d94:	ca 01       	movw	r24, r20
     d96:	a0 01       	movw	r20, r0
     d98:	11 24       	eor	r1, r1
     d9a:	ff 27       	eor	r31, r31
     d9c:	59 1b       	sub	r21, r25
     d9e:	99 f0       	breq	.+38     	; 0xdc6 <__addsf3x+0x5c>
     da0:	59 3f       	cpi	r21, 0xF9	; 249
     da2:	50 f4       	brcc	.+20     	; 0xdb8 <__addsf3x+0x4e>
     da4:	50 3e       	cpi	r21, 0xE0	; 224
     da6:	68 f1       	brcs	.+90     	; 0xe02 <__addsf3x+0x98>
     da8:	1a 16       	cp	r1, r26
     daa:	f0 40       	sbci	r31, 0x00	; 0
     dac:	a2 2f       	mov	r26, r18
     dae:	23 2f       	mov	r18, r19
     db0:	34 2f       	mov	r19, r20
     db2:	44 27       	eor	r20, r20
     db4:	58 5f       	subi	r21, 0xF8	; 248
     db6:	f3 cf       	rjmp	.-26     	; 0xd9e <__addsf3x+0x34>
     db8:	46 95       	lsr	r20
     dba:	37 95       	ror	r19
     dbc:	27 95       	ror	r18
     dbe:	a7 95       	ror	r26
     dc0:	f0 40       	sbci	r31, 0x00	; 0
     dc2:	53 95       	inc	r21
     dc4:	c9 f7       	brne	.-14     	; 0xdb8 <__addsf3x+0x4e>
     dc6:	7e f4       	brtc	.+30     	; 0xde6 <__addsf3x+0x7c>
     dc8:	1f 16       	cp	r1, r31
     dca:	ba 0b       	sbc	r27, r26
     dcc:	62 0b       	sbc	r22, r18
     dce:	73 0b       	sbc	r23, r19
     dd0:	84 0b       	sbc	r24, r20
     dd2:	ba f0       	brmi	.+46     	; 0xe02 <__addsf3x+0x98>
     dd4:	91 50       	subi	r25, 0x01	; 1
     dd6:	a1 f0       	breq	.+40     	; 0xe00 <__addsf3x+0x96>
     dd8:	ff 0f       	add	r31, r31
     dda:	bb 1f       	adc	r27, r27
     ddc:	66 1f       	adc	r22, r22
     dde:	77 1f       	adc	r23, r23
     de0:	88 1f       	adc	r24, r24
     de2:	c2 f7       	brpl	.-16     	; 0xdd4 <__addsf3x+0x6a>
     de4:	0e c0       	rjmp	.+28     	; 0xe02 <__addsf3x+0x98>
     de6:	ba 0f       	add	r27, r26
     de8:	62 1f       	adc	r22, r18
     dea:	73 1f       	adc	r23, r19
     dec:	84 1f       	adc	r24, r20
     dee:	48 f4       	brcc	.+18     	; 0xe02 <__addsf3x+0x98>
     df0:	87 95       	ror	r24
     df2:	77 95       	ror	r23
     df4:	67 95       	ror	r22
     df6:	b7 95       	ror	r27
     df8:	f7 95       	ror	r31
     dfa:	9e 3f       	cpi	r25, 0xFE	; 254
     dfc:	08 f0       	brcs	.+2      	; 0xe00 <__addsf3x+0x96>
     dfe:	b3 cf       	rjmp	.-154    	; 0xd66 <__addsf3+0x1e>
     e00:	93 95       	inc	r25
     e02:	88 0f       	add	r24, r24
     e04:	08 f0       	brcs	.+2      	; 0xe08 <__addsf3x+0x9e>
     e06:	99 27       	eor	r25, r25
     e08:	ee 0f       	add	r30, r30
     e0a:	97 95       	ror	r25
     e0c:	87 95       	ror	r24
     e0e:	08 95       	ret

00000e10 <__fixsfsi>:
     e10:	04 d0       	rcall	.+8      	; 0xe1a <__fixunssfsi>
     e12:	68 94       	set
     e14:	b1 11       	cpse	r27, r1
     e16:	b5 c0       	rjmp	.+362    	; 0xf82 <__fp_szero>
     e18:	08 95       	ret

00000e1a <__fixunssfsi>:
     e1a:	98 d0       	rcall	.+304    	; 0xf4c <__fp_splitA>
     e1c:	88 f0       	brcs	.+34     	; 0xe40 <__fixunssfsi+0x26>
     e1e:	9f 57       	subi	r25, 0x7F	; 127
     e20:	90 f0       	brcs	.+36     	; 0xe46 <__fixunssfsi+0x2c>
     e22:	b9 2f       	mov	r27, r25
     e24:	99 27       	eor	r25, r25
     e26:	b7 51       	subi	r27, 0x17	; 23
     e28:	a0 f0       	brcs	.+40     	; 0xe52 <__fixunssfsi+0x38>
     e2a:	d1 f0       	breq	.+52     	; 0xe60 <__fixunssfsi+0x46>
     e2c:	66 0f       	add	r22, r22
     e2e:	77 1f       	adc	r23, r23
     e30:	88 1f       	adc	r24, r24
     e32:	99 1f       	adc	r25, r25
     e34:	1a f0       	brmi	.+6      	; 0xe3c <__fixunssfsi+0x22>
     e36:	ba 95       	dec	r27
     e38:	c9 f7       	brne	.-14     	; 0xe2c <__fixunssfsi+0x12>
     e3a:	12 c0       	rjmp	.+36     	; 0xe60 <__fixunssfsi+0x46>
     e3c:	b1 30       	cpi	r27, 0x01	; 1
     e3e:	81 f0       	breq	.+32     	; 0xe60 <__fixunssfsi+0x46>
     e40:	9f d0       	rcall	.+318    	; 0xf80 <__fp_zero>
     e42:	b1 e0       	ldi	r27, 0x01	; 1
     e44:	08 95       	ret
     e46:	9c c0       	rjmp	.+312    	; 0xf80 <__fp_zero>
     e48:	67 2f       	mov	r22, r23
     e4a:	78 2f       	mov	r23, r24
     e4c:	88 27       	eor	r24, r24
     e4e:	b8 5f       	subi	r27, 0xF8	; 248
     e50:	39 f0       	breq	.+14     	; 0xe60 <__fixunssfsi+0x46>
     e52:	b9 3f       	cpi	r27, 0xF9	; 249
     e54:	cc f3       	brlt	.-14     	; 0xe48 <__fixunssfsi+0x2e>
     e56:	86 95       	lsr	r24
     e58:	77 95       	ror	r23
     e5a:	67 95       	ror	r22
     e5c:	b3 95       	inc	r27
     e5e:	d9 f7       	brne	.-10     	; 0xe56 <__fixunssfsi+0x3c>
     e60:	3e f4       	brtc	.+14     	; 0xe70 <__fixunssfsi+0x56>
     e62:	90 95       	com	r25
     e64:	80 95       	com	r24
     e66:	70 95       	com	r23
     e68:	61 95       	neg	r22
     e6a:	7f 4f       	sbci	r23, 0xFF	; 255
     e6c:	8f 4f       	sbci	r24, 0xFF	; 255
     e6e:	9f 4f       	sbci	r25, 0xFF	; 255
     e70:	08 95       	ret

00000e72 <__floatunsisf>:
     e72:	e8 94       	clt
     e74:	09 c0       	rjmp	.+18     	; 0xe88 <__floatsisf+0x12>

00000e76 <__floatsisf>:
     e76:	97 fb       	bst	r25, 7
     e78:	3e f4       	brtc	.+14     	; 0xe88 <__floatsisf+0x12>
     e7a:	90 95       	com	r25
     e7c:	80 95       	com	r24
     e7e:	70 95       	com	r23
     e80:	61 95       	neg	r22
     e82:	7f 4f       	sbci	r23, 0xFF	; 255
     e84:	8f 4f       	sbci	r24, 0xFF	; 255
     e86:	9f 4f       	sbci	r25, 0xFF	; 255
     e88:	99 23       	and	r25, r25
     e8a:	a9 f0       	breq	.+42     	; 0xeb6 <__floatsisf+0x40>
     e8c:	f9 2f       	mov	r31, r25
     e8e:	96 e9       	ldi	r25, 0x96	; 150
     e90:	bb 27       	eor	r27, r27
     e92:	93 95       	inc	r25
     e94:	f6 95       	lsr	r31
     e96:	87 95       	ror	r24
     e98:	77 95       	ror	r23
     e9a:	67 95       	ror	r22
     e9c:	b7 95       	ror	r27
     e9e:	f1 11       	cpse	r31, r1
     ea0:	f8 cf       	rjmp	.-16     	; 0xe92 <__floatsisf+0x1c>
     ea2:	fa f4       	brpl	.+62     	; 0xee2 <__floatsisf+0x6c>
     ea4:	bb 0f       	add	r27, r27
     ea6:	11 f4       	brne	.+4      	; 0xeac <__floatsisf+0x36>
     ea8:	60 ff       	sbrs	r22, 0
     eaa:	1b c0       	rjmp	.+54     	; 0xee2 <__floatsisf+0x6c>
     eac:	6f 5f       	subi	r22, 0xFF	; 255
     eae:	7f 4f       	sbci	r23, 0xFF	; 255
     eb0:	8f 4f       	sbci	r24, 0xFF	; 255
     eb2:	9f 4f       	sbci	r25, 0xFF	; 255
     eb4:	16 c0       	rjmp	.+44     	; 0xee2 <__floatsisf+0x6c>
     eb6:	88 23       	and	r24, r24
     eb8:	11 f0       	breq	.+4      	; 0xebe <__floatsisf+0x48>
     eba:	96 e9       	ldi	r25, 0x96	; 150
     ebc:	11 c0       	rjmp	.+34     	; 0xee0 <__floatsisf+0x6a>
     ebe:	77 23       	and	r23, r23
     ec0:	21 f0       	breq	.+8      	; 0xeca <__floatsisf+0x54>
     ec2:	9e e8       	ldi	r25, 0x8E	; 142
     ec4:	87 2f       	mov	r24, r23
     ec6:	76 2f       	mov	r23, r22
     ec8:	05 c0       	rjmp	.+10     	; 0xed4 <__floatsisf+0x5e>
     eca:	66 23       	and	r22, r22
     ecc:	71 f0       	breq	.+28     	; 0xeea <__floatsisf+0x74>
     ece:	96 e8       	ldi	r25, 0x86	; 134
     ed0:	86 2f       	mov	r24, r22
     ed2:	70 e0       	ldi	r23, 0x00	; 0
     ed4:	60 e0       	ldi	r22, 0x00	; 0
     ed6:	2a f0       	brmi	.+10     	; 0xee2 <__floatsisf+0x6c>
     ed8:	9a 95       	dec	r25
     eda:	66 0f       	add	r22, r22
     edc:	77 1f       	adc	r23, r23
     ede:	88 1f       	adc	r24, r24
     ee0:	da f7       	brpl	.-10     	; 0xed8 <__floatsisf+0x62>
     ee2:	88 0f       	add	r24, r24
     ee4:	96 95       	lsr	r25
     ee6:	87 95       	ror	r24
     ee8:	97 f9       	bld	r25, 7
     eea:	08 95       	ret

00000eec <__fp_inf>:
     eec:	97 f9       	bld	r25, 7
     eee:	9f 67       	ori	r25, 0x7F	; 127
     ef0:	80 e8       	ldi	r24, 0x80	; 128
     ef2:	70 e0       	ldi	r23, 0x00	; 0
     ef4:	60 e0       	ldi	r22, 0x00	; 0
     ef6:	08 95       	ret

00000ef8 <__fp_nan>:
     ef8:	9f ef       	ldi	r25, 0xFF	; 255
     efa:	80 ec       	ldi	r24, 0xC0	; 192
     efc:	08 95       	ret

00000efe <__fp_pscA>:
     efe:	00 24       	eor	r0, r0
     f00:	0a 94       	dec	r0
     f02:	16 16       	cp	r1, r22
     f04:	17 06       	cpc	r1, r23
     f06:	18 06       	cpc	r1, r24
     f08:	09 06       	cpc	r0, r25
     f0a:	08 95       	ret

00000f0c <__fp_pscB>:
     f0c:	00 24       	eor	r0, r0
     f0e:	0a 94       	dec	r0
     f10:	12 16       	cp	r1, r18
     f12:	13 06       	cpc	r1, r19
     f14:	14 06       	cpc	r1, r20
     f16:	05 06       	cpc	r0, r21
     f18:	08 95       	ret

00000f1a <__fp_round>:
     f1a:	09 2e       	mov	r0, r25
     f1c:	03 94       	inc	r0
     f1e:	00 0c       	add	r0, r0
     f20:	11 f4       	brne	.+4      	; 0xf26 <__fp_round+0xc>
     f22:	88 23       	and	r24, r24
     f24:	52 f0       	brmi	.+20     	; 0xf3a <__fp_round+0x20>
     f26:	bb 0f       	add	r27, r27
     f28:	40 f4       	brcc	.+16     	; 0xf3a <__fp_round+0x20>
     f2a:	bf 2b       	or	r27, r31
     f2c:	11 f4       	brne	.+4      	; 0xf32 <__fp_round+0x18>
     f2e:	60 ff       	sbrs	r22, 0
     f30:	04 c0       	rjmp	.+8      	; 0xf3a <__fp_round+0x20>
     f32:	6f 5f       	subi	r22, 0xFF	; 255
     f34:	7f 4f       	sbci	r23, 0xFF	; 255
     f36:	8f 4f       	sbci	r24, 0xFF	; 255
     f38:	9f 4f       	sbci	r25, 0xFF	; 255
     f3a:	08 95       	ret

00000f3c <__fp_split3>:
     f3c:	57 fd       	sbrc	r21, 7
     f3e:	90 58       	subi	r25, 0x80	; 128
     f40:	44 0f       	add	r20, r20
     f42:	55 1f       	adc	r21, r21
     f44:	59 f0       	breq	.+22     	; 0xf5c <__fp_splitA+0x10>
     f46:	5f 3f       	cpi	r21, 0xFF	; 255
     f48:	71 f0       	breq	.+28     	; 0xf66 <__fp_splitA+0x1a>
     f4a:	47 95       	ror	r20

00000f4c <__fp_splitA>:
     f4c:	88 0f       	add	r24, r24
     f4e:	97 fb       	bst	r25, 7
     f50:	99 1f       	adc	r25, r25
     f52:	61 f0       	breq	.+24     	; 0xf6c <__fp_splitA+0x20>
     f54:	9f 3f       	cpi	r25, 0xFF	; 255
     f56:	79 f0       	breq	.+30     	; 0xf76 <__fp_splitA+0x2a>
     f58:	87 95       	ror	r24
     f5a:	08 95       	ret
     f5c:	12 16       	cp	r1, r18
     f5e:	13 06       	cpc	r1, r19
     f60:	14 06       	cpc	r1, r20
     f62:	55 1f       	adc	r21, r21
     f64:	f2 cf       	rjmp	.-28     	; 0xf4a <__fp_split3+0xe>
     f66:	46 95       	lsr	r20
     f68:	f1 df       	rcall	.-30     	; 0xf4c <__fp_splitA>
     f6a:	08 c0       	rjmp	.+16     	; 0xf7c <__fp_splitA+0x30>
     f6c:	16 16       	cp	r1, r22
     f6e:	17 06       	cpc	r1, r23
     f70:	18 06       	cpc	r1, r24
     f72:	99 1f       	adc	r25, r25
     f74:	f1 cf       	rjmp	.-30     	; 0xf58 <__fp_splitA+0xc>
     f76:	86 95       	lsr	r24
     f78:	71 05       	cpc	r23, r1
     f7a:	61 05       	cpc	r22, r1
     f7c:	08 94       	sec
     f7e:	08 95       	ret

00000f80 <__fp_zero>:
     f80:	e8 94       	clt

00000f82 <__fp_szero>:
     f82:	bb 27       	eor	r27, r27
     f84:	66 27       	eor	r22, r22
     f86:	77 27       	eor	r23, r23
     f88:	cb 01       	movw	r24, r22
     f8a:	97 f9       	bld	r25, 7
     f8c:	08 95       	ret

00000f8e <__mulsf3>:
     f8e:	0b d0       	rcall	.+22     	; 0xfa6 <__mulsf3x>
     f90:	c4 cf       	rjmp	.-120    	; 0xf1a <__fp_round>
     f92:	b5 df       	rcall	.-150    	; 0xefe <__fp_pscA>
     f94:	28 f0       	brcs	.+10     	; 0xfa0 <__mulsf3+0x12>
     f96:	ba df       	rcall	.-140    	; 0xf0c <__fp_pscB>
     f98:	18 f0       	brcs	.+6      	; 0xfa0 <__mulsf3+0x12>
     f9a:	95 23       	and	r25, r21
     f9c:	09 f0       	breq	.+2      	; 0xfa0 <__mulsf3+0x12>
     f9e:	a6 cf       	rjmp	.-180    	; 0xeec <__fp_inf>
     fa0:	ab cf       	rjmp	.-170    	; 0xef8 <__fp_nan>
     fa2:	11 24       	eor	r1, r1
     fa4:	ee cf       	rjmp	.-36     	; 0xf82 <__fp_szero>

00000fa6 <__mulsf3x>:
     fa6:	ca df       	rcall	.-108    	; 0xf3c <__fp_split3>
     fa8:	a0 f3       	brcs	.-24     	; 0xf92 <__mulsf3+0x4>

00000faa <__mulsf3_pse>:
     faa:	95 9f       	mul	r25, r21
     fac:	d1 f3       	breq	.-12     	; 0xfa2 <__mulsf3+0x14>
     fae:	95 0f       	add	r25, r21
     fb0:	50 e0       	ldi	r21, 0x00	; 0
     fb2:	55 1f       	adc	r21, r21
     fb4:	62 9f       	mul	r22, r18
     fb6:	f0 01       	movw	r30, r0
     fb8:	72 9f       	mul	r23, r18
     fba:	bb 27       	eor	r27, r27
     fbc:	f0 0d       	add	r31, r0
     fbe:	b1 1d       	adc	r27, r1
     fc0:	63 9f       	mul	r22, r19
     fc2:	aa 27       	eor	r26, r26
     fc4:	f0 0d       	add	r31, r0
     fc6:	b1 1d       	adc	r27, r1
     fc8:	aa 1f       	adc	r26, r26
     fca:	64 9f       	mul	r22, r20
     fcc:	66 27       	eor	r22, r22
     fce:	b0 0d       	add	r27, r0
     fd0:	a1 1d       	adc	r26, r1
     fd2:	66 1f       	adc	r22, r22
     fd4:	82 9f       	mul	r24, r18
     fd6:	22 27       	eor	r18, r18
     fd8:	b0 0d       	add	r27, r0
     fda:	a1 1d       	adc	r26, r1
     fdc:	62 1f       	adc	r22, r18
     fde:	73 9f       	mul	r23, r19
     fe0:	b0 0d       	add	r27, r0
     fe2:	a1 1d       	adc	r26, r1
     fe4:	62 1f       	adc	r22, r18
     fe6:	83 9f       	mul	r24, r19
     fe8:	a0 0d       	add	r26, r0
     fea:	61 1d       	adc	r22, r1
     fec:	22 1f       	adc	r18, r18
     fee:	74 9f       	mul	r23, r20
     ff0:	33 27       	eor	r19, r19
     ff2:	a0 0d       	add	r26, r0
     ff4:	61 1d       	adc	r22, r1
     ff6:	23 1f       	adc	r18, r19
     ff8:	84 9f       	mul	r24, r20
     ffa:	60 0d       	add	r22, r0
     ffc:	21 1d       	adc	r18, r1
     ffe:	82 2f       	mov	r24, r18
    1000:	76 2f       	mov	r23, r22
    1002:	6a 2f       	mov	r22, r26
    1004:	11 24       	eor	r1, r1
    1006:	9f 57       	subi	r25, 0x7F	; 127
    1008:	50 40       	sbci	r21, 0x00	; 0
    100a:	8a f0       	brmi	.+34     	; 0x102e <__mulsf3_pse+0x84>
    100c:	e1 f0       	breq	.+56     	; 0x1046 <__mulsf3_pse+0x9c>
    100e:	88 23       	and	r24, r24
    1010:	4a f0       	brmi	.+18     	; 0x1024 <__mulsf3_pse+0x7a>
    1012:	ee 0f       	add	r30, r30
    1014:	ff 1f       	adc	r31, r31
    1016:	bb 1f       	adc	r27, r27
    1018:	66 1f       	adc	r22, r22
    101a:	77 1f       	adc	r23, r23
    101c:	88 1f       	adc	r24, r24
    101e:	91 50       	subi	r25, 0x01	; 1
    1020:	50 40       	sbci	r21, 0x00	; 0
    1022:	a9 f7       	brne	.-22     	; 0x100e <__mulsf3_pse+0x64>
    1024:	9e 3f       	cpi	r25, 0xFE	; 254
    1026:	51 05       	cpc	r21, r1
    1028:	70 f0       	brcs	.+28     	; 0x1046 <__mulsf3_pse+0x9c>
    102a:	60 cf       	rjmp	.-320    	; 0xeec <__fp_inf>
    102c:	aa cf       	rjmp	.-172    	; 0xf82 <__fp_szero>
    102e:	5f 3f       	cpi	r21, 0xFF	; 255
    1030:	ec f3       	brlt	.-6      	; 0x102c <__mulsf3_pse+0x82>
    1032:	98 3e       	cpi	r25, 0xE8	; 232
    1034:	dc f3       	brlt	.-10     	; 0x102c <__mulsf3_pse+0x82>
    1036:	86 95       	lsr	r24
    1038:	77 95       	ror	r23
    103a:	67 95       	ror	r22
    103c:	b7 95       	ror	r27
    103e:	f7 95       	ror	r31
    1040:	e7 95       	ror	r30
    1042:	9f 5f       	subi	r25, 0xFF	; 255
    1044:	c1 f7       	brne	.-16     	; 0x1036 <__mulsf3_pse+0x8c>
    1046:	fe 2b       	or	r31, r30
    1048:	88 0f       	add	r24, r24
    104a:	91 1d       	adc	r25, r1
    104c:	96 95       	lsr	r25
    104e:	87 95       	ror	r24
    1050:	97 f9       	bld	r25, 7
    1052:	08 95       	ret

00001054 <__udivmodqi4>:
    1054:	99 1b       	sub	r25, r25
    1056:	79 e0       	ldi	r23, 0x09	; 9
    1058:	04 c0       	rjmp	.+8      	; 0x1062 <__udivmodqi4_ep>

0000105a <__udivmodqi4_loop>:
    105a:	99 1f       	adc	r25, r25
    105c:	96 17       	cp	r25, r22
    105e:	08 f0       	brcs	.+2      	; 0x1062 <__udivmodqi4_ep>
    1060:	96 1b       	sub	r25, r22

00001062 <__udivmodqi4_ep>:
    1062:	88 1f       	adc	r24, r24
    1064:	7a 95       	dec	r23
    1066:	c9 f7       	brne	.-14     	; 0x105a <__udivmodqi4_loop>
    1068:	80 95       	com	r24
    106a:	08 95       	ret

0000106c <__udivmodhi4>:
    106c:	aa 1b       	sub	r26, r26
    106e:	bb 1b       	sub	r27, r27
    1070:	51 e1       	ldi	r21, 0x11	; 17
    1072:	07 c0       	rjmp	.+14     	; 0x1082 <__udivmodhi4_ep>

00001074 <__udivmodhi4_loop>:
    1074:	aa 1f       	adc	r26, r26
    1076:	bb 1f       	adc	r27, r27
    1078:	a6 17       	cp	r26, r22
    107a:	b7 07       	cpc	r27, r23
    107c:	10 f0       	brcs	.+4      	; 0x1082 <__udivmodhi4_ep>
    107e:	a6 1b       	sub	r26, r22
    1080:	b7 0b       	sbc	r27, r23

00001082 <__udivmodhi4_ep>:
    1082:	88 1f       	adc	r24, r24
    1084:	99 1f       	adc	r25, r25
    1086:	5a 95       	dec	r21
    1088:	a9 f7       	brne	.-22     	; 0x1074 <__udivmodhi4_loop>
    108a:	80 95       	com	r24
    108c:	90 95       	com	r25
    108e:	bc 01       	movw	r22, r24
    1090:	cd 01       	movw	r24, r26
    1092:	08 95       	ret

00001094 <__divmodsi4>:
    1094:	97 fb       	bst	r25, 7
    1096:	09 2e       	mov	r0, r25
    1098:	05 26       	eor	r0, r21
    109a:	0e d0       	rcall	.+28     	; 0x10b8 <__divmodsi4_neg1>
    109c:	57 fd       	sbrc	r21, 7
    109e:	04 d0       	rcall	.+8      	; 0x10a8 <__divmodsi4_neg2>
    10a0:	14 d0       	rcall	.+40     	; 0x10ca <__udivmodsi4>
    10a2:	0a d0       	rcall	.+20     	; 0x10b8 <__divmodsi4_neg1>
    10a4:	00 1c       	adc	r0, r0
    10a6:	38 f4       	brcc	.+14     	; 0x10b6 <__divmodsi4_exit>

000010a8 <__divmodsi4_neg2>:
    10a8:	50 95       	com	r21
    10aa:	40 95       	com	r20
    10ac:	30 95       	com	r19
    10ae:	21 95       	neg	r18
    10b0:	3f 4f       	sbci	r19, 0xFF	; 255
    10b2:	4f 4f       	sbci	r20, 0xFF	; 255
    10b4:	5f 4f       	sbci	r21, 0xFF	; 255

000010b6 <__divmodsi4_exit>:
    10b6:	08 95       	ret

000010b8 <__divmodsi4_neg1>:
    10b8:	f6 f7       	brtc	.-4      	; 0x10b6 <__divmodsi4_exit>
    10ba:	90 95       	com	r25
    10bc:	80 95       	com	r24
    10be:	70 95       	com	r23
    10c0:	61 95       	neg	r22
    10c2:	7f 4f       	sbci	r23, 0xFF	; 255
    10c4:	8f 4f       	sbci	r24, 0xFF	; 255
    10c6:	9f 4f       	sbci	r25, 0xFF	; 255
    10c8:	08 95       	ret

000010ca <__udivmodsi4>:
    10ca:	a1 e2       	ldi	r26, 0x21	; 33
    10cc:	1a 2e       	mov	r1, r26
    10ce:	aa 1b       	sub	r26, r26
    10d0:	bb 1b       	sub	r27, r27
    10d2:	fd 01       	movw	r30, r26
    10d4:	0d c0       	rjmp	.+26     	; 0x10f0 <__udivmodsi4_ep>

000010d6 <__udivmodsi4_loop>:
    10d6:	aa 1f       	adc	r26, r26
    10d8:	bb 1f       	adc	r27, r27
    10da:	ee 1f       	adc	r30, r30
    10dc:	ff 1f       	adc	r31, r31
    10de:	a2 17       	cp	r26, r18
    10e0:	b3 07       	cpc	r27, r19
    10e2:	e4 07       	cpc	r30, r20
    10e4:	f5 07       	cpc	r31, r21
    10e6:	20 f0       	brcs	.+8      	; 0x10f0 <__udivmodsi4_ep>
    10e8:	a2 1b       	sub	r26, r18
    10ea:	b3 0b       	sbc	r27, r19
    10ec:	e4 0b       	sbc	r30, r20
    10ee:	f5 0b       	sbc	r31, r21

000010f0 <__udivmodsi4_ep>:
    10f0:	66 1f       	adc	r22, r22
    10f2:	77 1f       	adc	r23, r23
    10f4:	88 1f       	adc	r24, r24
    10f6:	99 1f       	adc	r25, r25
    10f8:	1a 94       	dec	r1
    10fa:	69 f7       	brne	.-38     	; 0x10d6 <__udivmodsi4_loop>
    10fc:	60 95       	com	r22
    10fe:	70 95       	com	r23
    1100:	80 95       	com	r24
    1102:	90 95       	com	r25
    1104:	9b 01       	movw	r18, r22
    1106:	ac 01       	movw	r20, r24
    1108:	bd 01       	movw	r22, r26
    110a:	cf 01       	movw	r24, r30
    110c:	08 95       	ret

0000110e <malloc>:
    110e:	cf 93       	push	r28
    1110:	df 93       	push	r29
    1112:	ac 01       	movw	r20, r24
    1114:	82 30       	cpi	r24, 0x02	; 2
    1116:	91 05       	cpc	r25, r1
    1118:	10 f4       	brcc	.+4      	; 0x111e <malloc+0x10>
    111a:	42 e0       	ldi	r20, 0x02	; 2
    111c:	50 e0       	ldi	r21, 0x00	; 0
    111e:	e0 91 e5 01 	lds	r30, 0x01E5
    1122:	f0 91 e6 01 	lds	r31, 0x01E6
    1126:	20 e0       	ldi	r18, 0x00	; 0
    1128:	30 e0       	ldi	r19, 0x00	; 0
    112a:	a0 e0       	ldi	r26, 0x00	; 0
    112c:	b0 e0       	ldi	r27, 0x00	; 0
    112e:	24 c0       	rjmp	.+72     	; 0x1178 <malloc+0x6a>
    1130:	80 81       	ld	r24, Z
    1132:	91 81       	ldd	r25, Z+1	; 0x01
    1134:	84 17       	cp	r24, r20
    1136:	95 07       	cpc	r25, r21
    1138:	d0 f0       	brcs	.+52     	; 0x116e <malloc+0x60>
    113a:	84 17       	cp	r24, r20
    113c:	95 07       	cpc	r25, r21
    113e:	71 f4       	brne	.+28     	; 0x115c <malloc+0x4e>
    1140:	82 81       	ldd	r24, Z+2	; 0x02
    1142:	93 81       	ldd	r25, Z+3	; 0x03
    1144:	10 97       	sbiw	r26, 0x00	; 0
    1146:	29 f0       	breq	.+10     	; 0x1152 <malloc+0x44>
    1148:	13 96       	adiw	r26, 0x03	; 3
    114a:	9c 93       	st	X, r25
    114c:	8e 93       	st	-X, r24
    114e:	12 97       	sbiw	r26, 0x02	; 2
    1150:	2c c0       	rjmp	.+88     	; 0x11aa <malloc+0x9c>
    1152:	90 93 e6 01 	sts	0x01E6, r25
    1156:	80 93 e5 01 	sts	0x01E5, r24
    115a:	27 c0       	rjmp	.+78     	; 0x11aa <malloc+0x9c>
    115c:	21 15       	cp	r18, r1
    115e:	31 05       	cpc	r19, r1
    1160:	19 f0       	breq	.+6      	; 0x1168 <malloc+0x5a>
    1162:	82 17       	cp	r24, r18
    1164:	93 07       	cpc	r25, r19
    1166:	18 f4       	brcc	.+6      	; 0x116e <malloc+0x60>
    1168:	9c 01       	movw	r18, r24
    116a:	bd 01       	movw	r22, r26
    116c:	ef 01       	movw	r28, r30
    116e:	92 81       	ldd	r25, Z+2	; 0x02
    1170:	83 81       	ldd	r24, Z+3	; 0x03
    1172:	df 01       	movw	r26, r30
    1174:	e9 2f       	mov	r30, r25
    1176:	f8 2f       	mov	r31, r24
    1178:	30 97       	sbiw	r30, 0x00	; 0
    117a:	d1 f6       	brne	.-76     	; 0x1130 <malloc+0x22>
    117c:	21 15       	cp	r18, r1
    117e:	31 05       	cpc	r19, r1
    1180:	f9 f0       	breq	.+62     	; 0x11c0 <malloc+0xb2>
    1182:	c9 01       	movw	r24, r18
    1184:	84 1b       	sub	r24, r20
    1186:	95 0b       	sbc	r25, r21
    1188:	84 30       	cpi	r24, 0x04	; 4
    118a:	91 05       	cpc	r25, r1
    118c:	80 f4       	brcc	.+32     	; 0x11ae <malloc+0xa0>
    118e:	8a 81       	ldd	r24, Y+2	; 0x02
    1190:	9b 81       	ldd	r25, Y+3	; 0x03
    1192:	61 15       	cp	r22, r1
    1194:	71 05       	cpc	r23, r1
    1196:	21 f0       	breq	.+8      	; 0x11a0 <malloc+0x92>
    1198:	fb 01       	movw	r30, r22
    119a:	93 83       	std	Z+3, r25	; 0x03
    119c:	82 83       	std	Z+2, r24	; 0x02
    119e:	04 c0       	rjmp	.+8      	; 0x11a8 <malloc+0x9a>
    11a0:	90 93 e6 01 	sts	0x01E6, r25
    11a4:	80 93 e5 01 	sts	0x01E5, r24
    11a8:	fe 01       	movw	r30, r28
    11aa:	32 96       	adiw	r30, 0x02	; 2
    11ac:	42 c0       	rjmp	.+132    	; 0x1232 <malloc+0x124>
    11ae:	fe 01       	movw	r30, r28
    11b0:	e8 0f       	add	r30, r24
    11b2:	f9 1f       	adc	r31, r25
    11b4:	41 93       	st	Z+, r20
    11b6:	51 93       	st	Z+, r21
    11b8:	02 97       	sbiw	r24, 0x02	; 2
    11ba:	99 83       	std	Y+1, r25	; 0x01
    11bc:	88 83       	st	Y, r24
    11be:	39 c0       	rjmp	.+114    	; 0x1232 <malloc+0x124>
    11c0:	80 91 e3 01 	lds	r24, 0x01E3
    11c4:	90 91 e4 01 	lds	r25, 0x01E4
    11c8:	00 97       	sbiw	r24, 0x00	; 0
    11ca:	41 f4       	brne	.+16     	; 0x11dc <malloc+0xce>
    11cc:	80 91 15 01 	lds	r24, 0x0115
    11d0:	90 91 16 01 	lds	r25, 0x0116
    11d4:	90 93 e4 01 	sts	0x01E4, r25
    11d8:	80 93 e3 01 	sts	0x01E3, r24
    11dc:	20 91 13 01 	lds	r18, 0x0113
    11e0:	30 91 14 01 	lds	r19, 0x0114
    11e4:	21 15       	cp	r18, r1
    11e6:	31 05       	cpc	r19, r1
    11e8:	41 f4       	brne	.+16     	; 0x11fa <malloc+0xec>
    11ea:	2d b7       	in	r18, 0x3d	; 61
    11ec:	3e b7       	in	r19, 0x3e	; 62
    11ee:	80 91 17 01 	lds	r24, 0x0117
    11f2:	90 91 18 01 	lds	r25, 0x0118
    11f6:	28 1b       	sub	r18, r24
    11f8:	39 0b       	sbc	r19, r25
    11fa:	e0 91 e3 01 	lds	r30, 0x01E3
    11fe:	f0 91 e4 01 	lds	r31, 0x01E4
    1202:	e2 17       	cp	r30, r18
    1204:	f3 07       	cpc	r31, r19
    1206:	98 f4       	brcc	.+38     	; 0x122e <malloc+0x120>
    1208:	2e 1b       	sub	r18, r30
    120a:	3f 0b       	sbc	r19, r31
    120c:	24 17       	cp	r18, r20
    120e:	35 07       	cpc	r19, r21
    1210:	70 f0       	brcs	.+28     	; 0x122e <malloc+0x120>
    1212:	ca 01       	movw	r24, r20
    1214:	02 96       	adiw	r24, 0x02	; 2
    1216:	28 17       	cp	r18, r24
    1218:	39 07       	cpc	r19, r25
    121a:	48 f0       	brcs	.+18     	; 0x122e <malloc+0x120>
    121c:	8e 0f       	add	r24, r30
    121e:	9f 1f       	adc	r25, r31
    1220:	90 93 e4 01 	sts	0x01E4, r25
    1224:	80 93 e3 01 	sts	0x01E3, r24
    1228:	41 93       	st	Z+, r20
    122a:	51 93       	st	Z+, r21
    122c:	02 c0       	rjmp	.+4      	; 0x1232 <malloc+0x124>
    122e:	e0 e0       	ldi	r30, 0x00	; 0
    1230:	f0 e0       	ldi	r31, 0x00	; 0
    1232:	cf 01       	movw	r24, r30
    1234:	df 91       	pop	r29
    1236:	cf 91       	pop	r28
    1238:	08 95       	ret

0000123a <free>:
    123a:	0f 93       	push	r16
    123c:	1f 93       	push	r17
    123e:	cf 93       	push	r28
    1240:	df 93       	push	r29
    1242:	9c 01       	movw	r18, r24
    1244:	00 97       	sbiw	r24, 0x00	; 0
    1246:	09 f4       	brne	.+2      	; 0x124a <free+0x10>
    1248:	8c c0       	rjmp	.+280    	; 0x1362 <free+0x128>
    124a:	dc 01       	movw	r26, r24
    124c:	12 97       	sbiw	r26, 0x02	; 2
    124e:	13 96       	adiw	r26, 0x03	; 3
    1250:	1c 92       	st	X, r1
    1252:	1e 92       	st	-X, r1
    1254:	12 97       	sbiw	r26, 0x02	; 2
    1256:	60 91 e5 01 	lds	r22, 0x01E5
    125a:	70 91 e6 01 	lds	r23, 0x01E6
    125e:	61 15       	cp	r22, r1
    1260:	71 05       	cpc	r23, r1
    1262:	89 f4       	brne	.+34     	; 0x1286 <free+0x4c>
    1264:	8d 91       	ld	r24, X+
    1266:	9c 91       	ld	r25, X
    1268:	11 97       	sbiw	r26, 0x01	; 1
    126a:	82 0f       	add	r24, r18
    126c:	93 1f       	adc	r25, r19
    126e:	20 91 e3 01 	lds	r18, 0x01E3
    1272:	30 91 e4 01 	lds	r19, 0x01E4
    1276:	28 17       	cp	r18, r24
    1278:	39 07       	cpc	r19, r25
    127a:	69 f5       	brne	.+90     	; 0x12d6 <free+0x9c>
    127c:	b0 93 e4 01 	sts	0x01E4, r27
    1280:	a0 93 e3 01 	sts	0x01E3, r26
    1284:	6e c0       	rjmp	.+220    	; 0x1362 <free+0x128>
    1286:	fb 01       	movw	r30, r22
    1288:	40 e0       	ldi	r20, 0x00	; 0
    128a:	50 e0       	ldi	r21, 0x00	; 0
    128c:	01 c0       	rjmp	.+2      	; 0x1290 <free+0x56>
    128e:	fc 01       	movw	r30, r24
    1290:	ea 17       	cp	r30, r26
    1292:	fb 07       	cpc	r31, r27
    1294:	30 f4       	brcc	.+12     	; 0x12a2 <free+0x68>
    1296:	82 81       	ldd	r24, Z+2	; 0x02
    1298:	93 81       	ldd	r25, Z+3	; 0x03
    129a:	af 01       	movw	r20, r30
    129c:	00 97       	sbiw	r24, 0x00	; 0
    129e:	b9 f7       	brne	.-18     	; 0x128e <free+0x54>
    12a0:	1f c0       	rjmp	.+62     	; 0x12e0 <free+0xa6>
    12a2:	e9 01       	movw	r28, r18
    12a4:	22 97       	sbiw	r28, 0x02	; 2
    12a6:	fb 83       	std	Y+3, r31	; 0x03
    12a8:	ea 83       	std	Y+2, r30	; 0x02
    12aa:	08 81       	ld	r16, Y
    12ac:	19 81       	ldd	r17, Y+1	; 0x01
    12ae:	c9 01       	movw	r24, r18
    12b0:	80 0f       	add	r24, r16
    12b2:	91 1f       	adc	r25, r17
    12b4:	8e 17       	cp	r24, r30
    12b6:	9f 07       	cpc	r25, r31
    12b8:	59 f4       	brne	.+22     	; 0x12d0 <free+0x96>
    12ba:	80 81       	ld	r24, Z
    12bc:	91 81       	ldd	r25, Z+1	; 0x01
    12be:	80 0f       	add	r24, r16
    12c0:	91 1f       	adc	r25, r17
    12c2:	02 96       	adiw	r24, 0x02	; 2
    12c4:	99 83       	std	Y+1, r25	; 0x01
    12c6:	88 83       	st	Y, r24
    12c8:	82 81       	ldd	r24, Z+2	; 0x02
    12ca:	93 81       	ldd	r25, Z+3	; 0x03
    12cc:	9b 83       	std	Y+3, r25	; 0x03
    12ce:	8a 83       	std	Y+2, r24	; 0x02
    12d0:	41 15       	cp	r20, r1
    12d2:	51 05       	cpc	r21, r1
    12d4:	29 f4       	brne	.+10     	; 0x12e0 <free+0xa6>
    12d6:	b0 93 e6 01 	sts	0x01E6, r27
    12da:	a0 93 e5 01 	sts	0x01E5, r26
    12de:	41 c0       	rjmp	.+130    	; 0x1362 <free+0x128>
    12e0:	fa 01       	movw	r30, r20
    12e2:	b3 83       	std	Z+3, r27	; 0x03
    12e4:	a2 83       	std	Z+2, r26	; 0x02
    12e6:	c1 91       	ld	r28, Z+
    12e8:	d1 91       	ld	r29, Z+
    12ea:	ec 0f       	add	r30, r28
    12ec:	fd 1f       	adc	r31, r29
    12ee:	ae 17       	cp	r26, r30
    12f0:	bf 07       	cpc	r27, r31
    12f2:	81 f4       	brne	.+32     	; 0x1314 <free+0xda>
    12f4:	f9 01       	movw	r30, r18
    12f6:	92 91       	ld	r25, -Z
    12f8:	82 91       	ld	r24, -Z
    12fa:	8c 0f       	add	r24, r28
    12fc:	9d 1f       	adc	r25, r29
    12fe:	02 96       	adiw	r24, 0x02	; 2
    1300:	da 01       	movw	r26, r20
    1302:	11 96       	adiw	r26, 0x01	; 1
    1304:	9c 93       	st	X, r25
    1306:	8e 93       	st	-X, r24
    1308:	82 81       	ldd	r24, Z+2	; 0x02
    130a:	93 81       	ldd	r25, Z+3	; 0x03
    130c:	13 96       	adiw	r26, 0x03	; 3
    130e:	9c 93       	st	X, r25
    1310:	8e 93       	st	-X, r24
    1312:	12 97       	sbiw	r26, 0x02	; 2
    1314:	e0 e0       	ldi	r30, 0x00	; 0
    1316:	f0 e0       	ldi	r31, 0x00	; 0
    1318:	02 c0       	rjmp	.+4      	; 0x131e <free+0xe4>
    131a:	fb 01       	movw	r30, r22
    131c:	bc 01       	movw	r22, r24
    131e:	db 01       	movw	r26, r22
    1320:	12 96       	adiw	r26, 0x02	; 2
    1322:	8d 91       	ld	r24, X+
    1324:	9c 91       	ld	r25, X
    1326:	13 97       	sbiw	r26, 0x03	; 3
    1328:	00 97       	sbiw	r24, 0x00	; 0
    132a:	b9 f7       	brne	.-18     	; 0x131a <free+0xe0>
    132c:	cb 01       	movw	r24, r22
    132e:	02 96       	adiw	r24, 0x02	; 2
    1330:	2d 91       	ld	r18, X+
    1332:	3c 91       	ld	r19, X
    1334:	11 97       	sbiw	r26, 0x01	; 1
    1336:	82 0f       	add	r24, r18
    1338:	93 1f       	adc	r25, r19
    133a:	20 91 e3 01 	lds	r18, 0x01E3
    133e:	30 91 e4 01 	lds	r19, 0x01E4
    1342:	28 17       	cp	r18, r24
    1344:	39 07       	cpc	r19, r25
    1346:	69 f4       	brne	.+26     	; 0x1362 <free+0x128>
    1348:	30 97       	sbiw	r30, 0x00	; 0
    134a:	29 f4       	brne	.+10     	; 0x1356 <free+0x11c>
    134c:	10 92 e6 01 	sts	0x01E6, r1
    1350:	10 92 e5 01 	sts	0x01E5, r1
    1354:	02 c0       	rjmp	.+4      	; 0x135a <free+0x120>
    1356:	13 82       	std	Z+3, r1	; 0x03
    1358:	12 82       	std	Z+2, r1	; 0x02
    135a:	70 93 e4 01 	sts	0x01E4, r23
    135e:	60 93 e3 01 	sts	0x01E3, r22
    1362:	df 91       	pop	r29
    1364:	cf 91       	pop	r28
    1366:	1f 91       	pop	r17
    1368:	0f 91       	pop	r16
    136a:	08 95       	ret

0000136c <_exit>:
    136c:	f8 94       	cli

0000136e <__stop_program>:
    136e:	ff cf       	rjmp	.-2      	; 0x136e <__stop_program>
